ARM GAS  C:\Users\saite\AppData\Local\Temp\ccxfQYnf.s 			page 1


   1              		.cpu cortex-m4
   2              		.eabi_attribute 27, 1
   3              		.eabi_attribute 28, 1
   4              		.eabi_attribute 20, 1
   5              		.eabi_attribute 21, 1
   6              		.eabi_attribute 23, 3
   7              		.eabi_attribute 24, 1
   8              		.eabi_attribute 25, 1
   9              		.eabi_attribute 26, 1
  10              		.eabi_attribute 30, 1
  11              		.eabi_attribute 34, 1
  12              		.eabi_attribute 18, 4
  13              		.file	"main.cpp"
  14              		.text
  15              	.Ltext0:
  16              		.cfi_sections	.debug_frame
  17              		.section	.text._Z6_writeiPci,"ax",%progbits
  18              		.align	1
  19              		.global	_Z6_writeiPci
  20              		.arch armv7e-m
  21              		.syntax unified
  22              		.thumb
  23              		.thumb_func
  24              		.fpu fpv4-sp-d16
  26              	_Z6_writeiPci:
  27              		.fnstart
  28              	.LVL0:
  29              	.LFB1335:
  30              		.file 1 "Core/Src/main.cpp"
   1:Core/Src/main.cpp **** /* USER CODE BEGIN Header */
   2:Core/Src/main.cpp **** /**
   3:Core/Src/main.cpp ****   ******************************************************************************
   4:Core/Src/main.cpp ****   * @file           : main.c
   5:Core/Src/main.cpp ****   * @brief          : Main program body
   6:Core/Src/main.cpp ****   ******************************************************************************
   7:Core/Src/main.cpp ****   * @attention
   8:Core/Src/main.cpp ****   *
   9:Core/Src/main.cpp ****   * <h2><center>&copy; Copyright (c) 2022 STMicroelectronics.
  10:Core/Src/main.cpp ****   * All rights reserved.</center></h2>
  11:Core/Src/main.cpp ****   *
  12:Core/Src/main.cpp ****   * This software component is licensed by ST under BSD 3-Clause license,
  13:Core/Src/main.cpp ****   * the "License"; You may not use this file except in compliance with the
  14:Core/Src/main.cpp ****   * License. You may obtain a copy of the License at:
  15:Core/Src/main.cpp ****   *                        opensource.org/licenses/BSD-3-Clause
  16:Core/Src/main.cpp ****   *
  17:Core/Src/main.cpp ****   ******************************************************************************
  18:Core/Src/main.cpp ****   */
  19:Core/Src/main.cpp **** /* USER CODE END Header */
  20:Core/Src/main.cpp **** /* Includes ------------------------------------------------------------------*/
  21:Core/Src/main.cpp **** #include "main.h"
  22:Core/Src/main.cpp **** #include "adc.h"
  23:Core/Src/main.cpp **** #include "spi.h"
  24:Core/Src/main.cpp **** #include "tim.h"
  25:Core/Src/main.cpp **** #include "usart.h"
  26:Core/Src/main.cpp **** #include "gpio.h"
  27:Core/Src/main.cpp **** 
  28:Core/Src/main.cpp **** /* Private includes ----------------------------------------------------------*/
ARM GAS  C:\Users\saite\AppData\Local\Temp\ccxfQYnf.s 			page 2


  29:Core/Src/main.cpp **** /* USER CODE BEGIN Includes */
  30:Core/Src/main.cpp **** #include "mine.h"
  31:Core/Src/main.cpp **** /* USER CODE END Includes */
  32:Core/Src/main.cpp **** 
  33:Core/Src/main.cpp **** /* Private typedef -----------------------------------------------------------*/
  34:Core/Src/main.cpp **** /* USER CODE BEGIN PTD */
  35:Core/Src/main.cpp **** 
  36:Core/Src/main.cpp **** /* USER CODE END PTD */
  37:Core/Src/main.cpp **** 
  38:Core/Src/main.cpp **** /* Private define ------------------------------------------------------------*/
  39:Core/Src/main.cpp **** /* USER CODE BEGIN PD */
  40:Core/Src/main.cpp **** /* USER CODE END PD */
  41:Core/Src/main.cpp **** 
  42:Core/Src/main.cpp **** /* Private macro -------------------------------------------------------------*/
  43:Core/Src/main.cpp **** /* USER CODE BEGIN PM */
  44:Core/Src/main.cpp **** 
  45:Core/Src/main.cpp **** /* USER CODE END PM */
  46:Core/Src/main.cpp **** 
  47:Core/Src/main.cpp **** /* Private variables ---------------------------------------------------------*/
  48:Core/Src/main.cpp **** 
  49:Core/Src/main.cpp **** /* USER CODE BEGIN PV */
  50:Core/Src/main.cpp **** 
  51:Core/Src/main.cpp **** /* USER CODE END PV */
  52:Core/Src/main.cpp **** 
  53:Core/Src/main.cpp **** /* Private function prototypes -----------------------------------------------*/
  54:Core/Src/main.cpp **** void SystemClock_Config(void);
  55:Core/Src/main.cpp **** /* USER CODE BEGIN PFP */
  56:Core/Src/main.cpp **** 
  57:Core/Src/main.cpp **** /* USER CODE END PFP */
  58:Core/Src/main.cpp **** 
  59:Core/Src/main.cpp **** /* Private user code ---------------------------------------------------------*/
  60:Core/Src/main.cpp **** /* USER CODE BEGIN 0 */
  61:Core/Src/main.cpp **** 
  62:Core/Src/main.cpp **** /* USER CODE END 0 */
  63:Core/Src/main.cpp **** 
  64:Core/Src/main.cpp **** /**
  65:Core/Src/main.cpp ****   * @brief  The application entry point.
  66:Core/Src/main.cpp ****   * @retval int
  67:Core/Src/main.cpp ****   */
  68:Core/Src/main.cpp **** int main(void)
  69:Core/Src/main.cpp **** {
  70:Core/Src/main.cpp ****   /* USER CODE BEGIN 1 */
  71:Core/Src/main.cpp ****   std::vector<int>v(0);
  72:Core/Src/main.cpp ****   /* USER CODE END 1 */
  73:Core/Src/main.cpp **** 
  74:Core/Src/main.cpp ****   /* MCU Configuration--------------------------------------------------------*/
  75:Core/Src/main.cpp **** 
  76:Core/Src/main.cpp ****   /* Reset of all peripherals, Initializes the Flash interface and the Systick. */
  77:Core/Src/main.cpp ****   HAL_Init();
  78:Core/Src/main.cpp ****   /* USER CODE BEGIN Init */
  79:Core/Src/main.cpp **** 
  80:Core/Src/main.cpp ****   /* USER CODE END Init */
  81:Core/Src/main.cpp **** 
  82:Core/Src/main.cpp ****   /* Configure the system clock */
  83:Core/Src/main.cpp ****   SystemClock_Config();
  84:Core/Src/main.cpp **** 
  85:Core/Src/main.cpp ****   /* USER CODE BEGIN SysInit */
ARM GAS  C:\Users\saite\AppData\Local\Temp\ccxfQYnf.s 			page 3


  86:Core/Src/main.cpp **** 
  87:Core/Src/main.cpp ****   /* USER CODE END SysInit */
  88:Core/Src/main.cpp **** 
  89:Core/Src/main.cpp ****   /* Initialize all configured peripherals */
  90:Core/Src/main.cpp ****   MX_GPIO_Init();
  91:Core/Src/main.cpp ****   MX_ADC1_Init();
  92:Core/Src/main.cpp ****   MX_TIM2_Init();
  93:Core/Src/main.cpp ****   MX_TIM4_Init();
  94:Core/Src/main.cpp ****   MX_TIM9_Init();
  95:Core/Src/main.cpp ****   MX_TIM12_Init();
  96:Core/Src/main.cpp ****   MX_UART4_Init();
  97:Core/Src/main.cpp ****   MX_SPI1_Init();
  98:Core/Src/main.cpp ****   MX_TIM6_Init();
  99:Core/Src/main.cpp ****   /* USER CODE BEGIN 2 */
 100:Core/Src/main.cpp ****   v.push_back(1);
 101:Core/Src/main.cpp ****   /* USER CODE END 2 */
 102:Core/Src/main.cpp **** 
 103:Core/Src/main.cpp ****   /* Infinite loop */
 104:Core/Src/main.cpp ****   /* USER CODE BEGIN WHILE */
 105:Core/Src/main.cpp ****   while (1)
 106:Core/Src/main.cpp ****   {
 107:Core/Src/main.cpp ****     /* USER CODE END WHILE */
 108:Core/Src/main.cpp ****     
 109:Core/Src/main.cpp ****     /* USER CODE BEGIN 3 */
 110:Core/Src/main.cpp ****   }
 111:Core/Src/main.cpp ****   /* USER CODE END 3 */
 112:Core/Src/main.cpp **** }
 113:Core/Src/main.cpp **** 
 114:Core/Src/main.cpp **** /**
 115:Core/Src/main.cpp ****   * @brief System Clock Configuration
 116:Core/Src/main.cpp ****   * @retval None
 117:Core/Src/main.cpp ****   */
 118:Core/Src/main.cpp **** void SystemClock_Config(void)
 119:Core/Src/main.cpp **** {
 120:Core/Src/main.cpp ****   RCC_OscInitTypeDef RCC_OscInitStruct = {0};
 121:Core/Src/main.cpp ****   RCC_ClkInitTypeDef RCC_ClkInitStruct = {0};
 122:Core/Src/main.cpp **** 
 123:Core/Src/main.cpp ****   /** Configure the main internal regulator output voltage
 124:Core/Src/main.cpp ****   */
 125:Core/Src/main.cpp ****   __HAL_RCC_PWR_CLK_ENABLE();
 126:Core/Src/main.cpp ****   __HAL_PWR_VOLTAGESCALING_CONFIG(PWR_REGULATOR_VOLTAGE_SCALE1);
 127:Core/Src/main.cpp ****   /** Initializes the RCC Oscillators according to the specified parameters
 128:Core/Src/main.cpp ****   * in the RCC_OscInitTypeDef structure.
 129:Core/Src/main.cpp ****   */
 130:Core/Src/main.cpp ****   RCC_OscInitStruct.OscillatorType = RCC_OSCILLATORTYPE_HSI;
 131:Core/Src/main.cpp ****   RCC_OscInitStruct.HSIState = RCC_HSI_ON;
 132:Core/Src/main.cpp ****   RCC_OscInitStruct.HSICalibrationValue = RCC_HSICALIBRATION_DEFAULT;
 133:Core/Src/main.cpp ****   RCC_OscInitStruct.PLL.PLLState = RCC_PLL_ON;
 134:Core/Src/main.cpp ****   RCC_OscInitStruct.PLL.PLLSource = RCC_PLLSOURCE_HSI;
 135:Core/Src/main.cpp ****   RCC_OscInitStruct.PLL.PLLM = 8;
 136:Core/Src/main.cpp ****   RCC_OscInitStruct.PLL.PLLN = 168;
 137:Core/Src/main.cpp ****   RCC_OscInitStruct.PLL.PLLP = RCC_PLLP_DIV2;
 138:Core/Src/main.cpp ****   RCC_OscInitStruct.PLL.PLLQ = 4;
 139:Core/Src/main.cpp ****   if (HAL_RCC_OscConfig(&RCC_OscInitStruct) != HAL_OK)
 140:Core/Src/main.cpp ****   {
 141:Core/Src/main.cpp ****     Error_Handler();
 142:Core/Src/main.cpp ****   }
ARM GAS  C:\Users\saite\AppData\Local\Temp\ccxfQYnf.s 			page 4


 143:Core/Src/main.cpp ****   /** Initializes the CPU, AHB and APB buses clocks
 144:Core/Src/main.cpp ****   */
 145:Core/Src/main.cpp ****   RCC_ClkInitStruct.ClockType = RCC_CLOCKTYPE_HCLK|RCC_CLOCKTYPE_SYSCLK
 146:Core/Src/main.cpp ****                               |RCC_CLOCKTYPE_PCLK1|RCC_CLOCKTYPE_PCLK2;
 147:Core/Src/main.cpp ****   RCC_ClkInitStruct.SYSCLKSource = RCC_SYSCLKSOURCE_PLLCLK;
 148:Core/Src/main.cpp ****   RCC_ClkInitStruct.AHBCLKDivider = RCC_SYSCLK_DIV1;
 149:Core/Src/main.cpp ****   RCC_ClkInitStruct.APB1CLKDivider = RCC_HCLK_DIV4;
 150:Core/Src/main.cpp ****   RCC_ClkInitStruct.APB2CLKDivider = RCC_HCLK_DIV2;
 151:Core/Src/main.cpp **** 
 152:Core/Src/main.cpp ****   if (HAL_RCC_ClockConfig(&RCC_ClkInitStruct, FLASH_LATENCY_5) != HAL_OK)
 153:Core/Src/main.cpp ****   {
 154:Core/Src/main.cpp ****     Error_Handler();
 155:Core/Src/main.cpp ****   }
 156:Core/Src/main.cpp **** }
 157:Core/Src/main.cpp **** 
 158:Core/Src/main.cpp **** /* USER CODE BEGIN 4 */
 159:Core/Src/main.cpp **** int _write(int file, char *ptr, int len)
 160:Core/Src/main.cpp **** {
  31              		.loc 1 160 1 view -0
  32              		.cfi_startproc
  33              		@ args = 0, pretend = 0, frame = 0
  34              		@ frame_needed = 0, uses_anonymous_args = 0
  35              		.loc 1 160 1 is_stmt 0 view .LVU1
  36 0000 10B5     		push	{r4, lr}
  37              		.save {r4, lr}
  38              	.LCFI0:
  39              		.cfi_def_cfa_offset 8
  40              		.cfi_offset 4, -8
  41              		.cfi_offset 14, -4
  42 0002 1446     		mov	r4, r2
 161:Core/Src/main.cpp ****   HAL_UART_Transmit(&huart4, (uint8_t *)ptr, len, 10);
  43              		.loc 1 161 3 is_stmt 1 view .LVU2
  44              		.loc 1 161 20 is_stmt 0 view .LVU3
  45 0004 0A23     		movs	r3, #10
  46 0006 92B2     		uxth	r2, r2
  47              	.LVL1:
  48              		.loc 1 161 20 view .LVU4
  49 0008 0248     		ldr	r0, .L3
  50              	.LVL2:
  51              		.loc 1 161 20 view .LVU5
  52 000a FFF7FEFF 		bl	HAL_UART_Transmit
  53              	.LVL3:
 162:Core/Src/main.cpp ****   return len;
  54              		.loc 1 162 3 is_stmt 1 view .LVU6
 163:Core/Src/main.cpp **** }
  55              		.loc 1 163 1 is_stmt 0 view .LVU7
  56 000e 2046     		mov	r0, r4
  57 0010 10BD     		pop	{r4, pc}
  58              	.LVL4:
  59              	.L4:
  60              		.loc 1 163 1 view .LVU8
  61 0012 00BF     		.align	2
  62              	.L3:
  63 0014 00000000 		.word	huart4
  64              		.cfi_endproc
  65              	.LFE1335:
  66              		.fnend
ARM GAS  C:\Users\saite\AppData\Local\Temp\ccxfQYnf.s 			page 5


  68              		.section	.text.Error_Handler,"ax",%progbits
  69              		.align	1
  70              		.global	Error_Handler
  71              		.syntax unified
  72              		.thumb
  73              		.thumb_func
  74              		.fpu fpv4-sp-d16
  76              	Error_Handler:
  77              		.fnstart
  78              	.LFB1336:
 164:Core/Src/main.cpp **** /* USER CODE END 4 */
 165:Core/Src/main.cpp **** 
 166:Core/Src/main.cpp **** /**
 167:Core/Src/main.cpp ****   * @brief  This function is executed in case of error occurrence.
 168:Core/Src/main.cpp ****   * @retval None
 169:Core/Src/main.cpp ****   */
 170:Core/Src/main.cpp **** void Error_Handler(void)
 171:Core/Src/main.cpp **** {
  79              		.loc 1 171 1 is_stmt 1 view -0
  80              		.cfi_startproc
  81              		@ Volatile: function does not return.
  82              		@ args = 0, pretend = 0, frame = 0
  83              		@ frame_needed = 0, uses_anonymous_args = 0
  84              		@ link register save eliminated.
 172:Core/Src/main.cpp ****   /* USER CODE BEGIN Error_Handler_Debug */
 173:Core/Src/main.cpp ****   /* User can add his own implementation to report the HAL error return state */
 174:Core/Src/main.cpp ****   __disable_irq();
  85              		.loc 1 174 3 view .LVU10
  86              	.LBB276:
  87              	.LBI276:
  88              		.file 2 "Drivers/CMSIS/Include/cmsis_gcc.h"
   1:Drivers/CMSIS/Include/cmsis_gcc.h **** /**************************************************************************//**
   2:Drivers/CMSIS/Include/cmsis_gcc.h ****  * @file     cmsis_gcc.h
   3:Drivers/CMSIS/Include/cmsis_gcc.h ****  * @brief    CMSIS compiler GCC header file
   4:Drivers/CMSIS/Include/cmsis_gcc.h ****  * @version  V5.0.4
   5:Drivers/CMSIS/Include/cmsis_gcc.h ****  * @date     09. April 2018
   6:Drivers/CMSIS/Include/cmsis_gcc.h ****  ******************************************************************************/
   7:Drivers/CMSIS/Include/cmsis_gcc.h **** /*
   8:Drivers/CMSIS/Include/cmsis_gcc.h ****  * Copyright (c) 2009-2018 Arm Limited. All rights reserved.
   9:Drivers/CMSIS/Include/cmsis_gcc.h ****  *
  10:Drivers/CMSIS/Include/cmsis_gcc.h ****  * SPDX-License-Identifier: Apache-2.0
  11:Drivers/CMSIS/Include/cmsis_gcc.h ****  *
  12:Drivers/CMSIS/Include/cmsis_gcc.h ****  * Licensed under the Apache License, Version 2.0 (the License); you may
  13:Drivers/CMSIS/Include/cmsis_gcc.h ****  * not use this file except in compliance with the License.
  14:Drivers/CMSIS/Include/cmsis_gcc.h ****  * You may obtain a copy of the License at
  15:Drivers/CMSIS/Include/cmsis_gcc.h ****  *
  16:Drivers/CMSIS/Include/cmsis_gcc.h ****  * www.apache.org/licenses/LICENSE-2.0
  17:Drivers/CMSIS/Include/cmsis_gcc.h ****  *
  18:Drivers/CMSIS/Include/cmsis_gcc.h ****  * Unless required by applicable law or agreed to in writing, software
  19:Drivers/CMSIS/Include/cmsis_gcc.h ****  * distributed under the License is distributed on an AS IS BASIS, WITHOUT
  20:Drivers/CMSIS/Include/cmsis_gcc.h ****  * WARRANTIES OR CONDITIONS OF ANY KIND, either express or implied.
  21:Drivers/CMSIS/Include/cmsis_gcc.h ****  * See the License for the specific language governing permissions and
  22:Drivers/CMSIS/Include/cmsis_gcc.h ****  * limitations under the License.
  23:Drivers/CMSIS/Include/cmsis_gcc.h ****  */
  24:Drivers/CMSIS/Include/cmsis_gcc.h **** 
  25:Drivers/CMSIS/Include/cmsis_gcc.h **** #ifndef __CMSIS_GCC_H
  26:Drivers/CMSIS/Include/cmsis_gcc.h **** #define __CMSIS_GCC_H
ARM GAS  C:\Users\saite\AppData\Local\Temp\ccxfQYnf.s 			page 6


  27:Drivers/CMSIS/Include/cmsis_gcc.h **** 
  28:Drivers/CMSIS/Include/cmsis_gcc.h **** /* ignore some GCC warnings */
  29:Drivers/CMSIS/Include/cmsis_gcc.h **** #pragma GCC diagnostic push
  30:Drivers/CMSIS/Include/cmsis_gcc.h **** #pragma GCC diagnostic ignored "-Wsign-conversion"
  31:Drivers/CMSIS/Include/cmsis_gcc.h **** #pragma GCC diagnostic ignored "-Wconversion"
  32:Drivers/CMSIS/Include/cmsis_gcc.h **** #pragma GCC diagnostic ignored "-Wunused-parameter"
  33:Drivers/CMSIS/Include/cmsis_gcc.h **** 
  34:Drivers/CMSIS/Include/cmsis_gcc.h **** /* Fallback for __has_builtin */
  35:Drivers/CMSIS/Include/cmsis_gcc.h **** #ifndef __has_builtin
  36:Drivers/CMSIS/Include/cmsis_gcc.h ****   #define __has_builtin(x) (0)
  37:Drivers/CMSIS/Include/cmsis_gcc.h **** #endif
  38:Drivers/CMSIS/Include/cmsis_gcc.h **** 
  39:Drivers/CMSIS/Include/cmsis_gcc.h **** /* CMSIS compiler specific defines */
  40:Drivers/CMSIS/Include/cmsis_gcc.h **** #ifndef   __ASM
  41:Drivers/CMSIS/Include/cmsis_gcc.h ****   #define __ASM                                  __asm
  42:Drivers/CMSIS/Include/cmsis_gcc.h **** #endif
  43:Drivers/CMSIS/Include/cmsis_gcc.h **** #ifndef   __INLINE
  44:Drivers/CMSIS/Include/cmsis_gcc.h ****   #define __INLINE                               inline
  45:Drivers/CMSIS/Include/cmsis_gcc.h **** #endif
  46:Drivers/CMSIS/Include/cmsis_gcc.h **** #ifndef   __STATIC_INLINE
  47:Drivers/CMSIS/Include/cmsis_gcc.h ****   #define __STATIC_INLINE                        static inline
  48:Drivers/CMSIS/Include/cmsis_gcc.h **** #endif
  49:Drivers/CMSIS/Include/cmsis_gcc.h **** #ifndef   __STATIC_FORCEINLINE                 
  50:Drivers/CMSIS/Include/cmsis_gcc.h ****   #define __STATIC_FORCEINLINE                   __attribute__((always_inline)) static inline
  51:Drivers/CMSIS/Include/cmsis_gcc.h **** #endif                                           
  52:Drivers/CMSIS/Include/cmsis_gcc.h **** #ifndef   __NO_RETURN
  53:Drivers/CMSIS/Include/cmsis_gcc.h ****   #define __NO_RETURN                            __attribute__((__noreturn__))
  54:Drivers/CMSIS/Include/cmsis_gcc.h **** #endif
  55:Drivers/CMSIS/Include/cmsis_gcc.h **** #ifndef   __USED
  56:Drivers/CMSIS/Include/cmsis_gcc.h ****   #define __USED                                 __attribute__((used))
  57:Drivers/CMSIS/Include/cmsis_gcc.h **** #endif
  58:Drivers/CMSIS/Include/cmsis_gcc.h **** #ifndef   __WEAK
  59:Drivers/CMSIS/Include/cmsis_gcc.h ****   #define __WEAK                                 __attribute__((weak))
  60:Drivers/CMSIS/Include/cmsis_gcc.h **** #endif
  61:Drivers/CMSIS/Include/cmsis_gcc.h **** #ifndef   __PACKED
  62:Drivers/CMSIS/Include/cmsis_gcc.h ****   #define __PACKED                               __attribute__((packed, aligned(1)))
  63:Drivers/CMSIS/Include/cmsis_gcc.h **** #endif
  64:Drivers/CMSIS/Include/cmsis_gcc.h **** #ifndef   __PACKED_STRUCT
  65:Drivers/CMSIS/Include/cmsis_gcc.h ****   #define __PACKED_STRUCT                        struct __attribute__((packed, aligned(1)))
  66:Drivers/CMSIS/Include/cmsis_gcc.h **** #endif
  67:Drivers/CMSIS/Include/cmsis_gcc.h **** #ifndef   __PACKED_UNION
  68:Drivers/CMSIS/Include/cmsis_gcc.h ****   #define __PACKED_UNION                         union __attribute__((packed, aligned(1)))
  69:Drivers/CMSIS/Include/cmsis_gcc.h **** #endif
  70:Drivers/CMSIS/Include/cmsis_gcc.h **** #ifndef   __UNALIGNED_UINT32        /* deprecated */
  71:Drivers/CMSIS/Include/cmsis_gcc.h ****   #pragma GCC diagnostic push
  72:Drivers/CMSIS/Include/cmsis_gcc.h ****   #pragma GCC diagnostic ignored "-Wpacked"
  73:Drivers/CMSIS/Include/cmsis_gcc.h ****   #pragma GCC diagnostic ignored "-Wattributes"
  74:Drivers/CMSIS/Include/cmsis_gcc.h ****   struct __attribute__((packed)) T_UINT32 { uint32_t v; };
  75:Drivers/CMSIS/Include/cmsis_gcc.h ****   #pragma GCC diagnostic pop
  76:Drivers/CMSIS/Include/cmsis_gcc.h ****   #define __UNALIGNED_UINT32(x)                  (((struct T_UINT32 *)(x))->v)
  77:Drivers/CMSIS/Include/cmsis_gcc.h **** #endif
  78:Drivers/CMSIS/Include/cmsis_gcc.h **** #ifndef   __UNALIGNED_UINT16_WRITE
  79:Drivers/CMSIS/Include/cmsis_gcc.h ****   #pragma GCC diagnostic push
  80:Drivers/CMSIS/Include/cmsis_gcc.h ****   #pragma GCC diagnostic ignored "-Wpacked"
  81:Drivers/CMSIS/Include/cmsis_gcc.h ****   #pragma GCC diagnostic ignored "-Wattributes"
  82:Drivers/CMSIS/Include/cmsis_gcc.h ****   __PACKED_STRUCT T_UINT16_WRITE { uint16_t v; };
  83:Drivers/CMSIS/Include/cmsis_gcc.h ****   #pragma GCC diagnostic pop
ARM GAS  C:\Users\saite\AppData\Local\Temp\ccxfQYnf.s 			page 7


  84:Drivers/CMSIS/Include/cmsis_gcc.h ****   #define __UNALIGNED_UINT16_WRITE(addr, val)    (void)((((struct T_UINT16_WRITE *)(void *)(addr))-
  85:Drivers/CMSIS/Include/cmsis_gcc.h **** #endif
  86:Drivers/CMSIS/Include/cmsis_gcc.h **** #ifndef   __UNALIGNED_UINT16_READ
  87:Drivers/CMSIS/Include/cmsis_gcc.h ****   #pragma GCC diagnostic push
  88:Drivers/CMSIS/Include/cmsis_gcc.h ****   #pragma GCC diagnostic ignored "-Wpacked"
  89:Drivers/CMSIS/Include/cmsis_gcc.h ****   #pragma GCC diagnostic ignored "-Wattributes"
  90:Drivers/CMSIS/Include/cmsis_gcc.h ****   __PACKED_STRUCT T_UINT16_READ { uint16_t v; };
  91:Drivers/CMSIS/Include/cmsis_gcc.h ****   #pragma GCC diagnostic pop
  92:Drivers/CMSIS/Include/cmsis_gcc.h ****   #define __UNALIGNED_UINT16_READ(addr)          (((const struct T_UINT16_READ *)(const void *)(add
  93:Drivers/CMSIS/Include/cmsis_gcc.h **** #endif
  94:Drivers/CMSIS/Include/cmsis_gcc.h **** #ifndef   __UNALIGNED_UINT32_WRITE
  95:Drivers/CMSIS/Include/cmsis_gcc.h ****   #pragma GCC diagnostic push
  96:Drivers/CMSIS/Include/cmsis_gcc.h ****   #pragma GCC diagnostic ignored "-Wpacked"
  97:Drivers/CMSIS/Include/cmsis_gcc.h ****   #pragma GCC diagnostic ignored "-Wattributes"
  98:Drivers/CMSIS/Include/cmsis_gcc.h ****   __PACKED_STRUCT T_UINT32_WRITE { uint32_t v; };
  99:Drivers/CMSIS/Include/cmsis_gcc.h ****   #pragma GCC diagnostic pop
 100:Drivers/CMSIS/Include/cmsis_gcc.h ****   #define __UNALIGNED_UINT32_WRITE(addr, val)    (void)((((struct T_UINT32_WRITE *)(void *)(addr))-
 101:Drivers/CMSIS/Include/cmsis_gcc.h **** #endif
 102:Drivers/CMSIS/Include/cmsis_gcc.h **** #ifndef   __UNALIGNED_UINT32_READ
 103:Drivers/CMSIS/Include/cmsis_gcc.h ****   #pragma GCC diagnostic push
 104:Drivers/CMSIS/Include/cmsis_gcc.h ****   #pragma GCC diagnostic ignored "-Wpacked"
 105:Drivers/CMSIS/Include/cmsis_gcc.h ****   #pragma GCC diagnostic ignored "-Wattributes"
 106:Drivers/CMSIS/Include/cmsis_gcc.h ****   __PACKED_STRUCT T_UINT32_READ { uint32_t v; };
 107:Drivers/CMSIS/Include/cmsis_gcc.h ****   #pragma GCC diagnostic pop
 108:Drivers/CMSIS/Include/cmsis_gcc.h ****   #define __UNALIGNED_UINT32_READ(addr)          (((const struct T_UINT32_READ *)(const void *)(add
 109:Drivers/CMSIS/Include/cmsis_gcc.h **** #endif
 110:Drivers/CMSIS/Include/cmsis_gcc.h **** #ifndef   __ALIGNED
 111:Drivers/CMSIS/Include/cmsis_gcc.h ****   #define __ALIGNED(x)                           __attribute__((aligned(x)))
 112:Drivers/CMSIS/Include/cmsis_gcc.h **** #endif
 113:Drivers/CMSIS/Include/cmsis_gcc.h **** #ifndef   __RESTRICT
 114:Drivers/CMSIS/Include/cmsis_gcc.h ****   #define __RESTRICT                             __restrict
 115:Drivers/CMSIS/Include/cmsis_gcc.h **** #endif
 116:Drivers/CMSIS/Include/cmsis_gcc.h **** 
 117:Drivers/CMSIS/Include/cmsis_gcc.h **** 
 118:Drivers/CMSIS/Include/cmsis_gcc.h **** /* ###########################  Core Function Access  ########################### */
 119:Drivers/CMSIS/Include/cmsis_gcc.h **** /** \ingroup  CMSIS_Core_FunctionInterface
 120:Drivers/CMSIS/Include/cmsis_gcc.h ****     \defgroup CMSIS_Core_RegAccFunctions CMSIS Core Register Access Functions
 121:Drivers/CMSIS/Include/cmsis_gcc.h ****   @{
 122:Drivers/CMSIS/Include/cmsis_gcc.h ****  */
 123:Drivers/CMSIS/Include/cmsis_gcc.h **** 
 124:Drivers/CMSIS/Include/cmsis_gcc.h **** /**
 125:Drivers/CMSIS/Include/cmsis_gcc.h ****   \brief   Enable IRQ Interrupts
 126:Drivers/CMSIS/Include/cmsis_gcc.h ****   \details Enables IRQ interrupts by clearing the I-bit in the CPSR.
 127:Drivers/CMSIS/Include/cmsis_gcc.h ****            Can only be executed in Privileged modes.
 128:Drivers/CMSIS/Include/cmsis_gcc.h ****  */
 129:Drivers/CMSIS/Include/cmsis_gcc.h **** __STATIC_FORCEINLINE void __enable_irq(void)
 130:Drivers/CMSIS/Include/cmsis_gcc.h **** {
 131:Drivers/CMSIS/Include/cmsis_gcc.h ****   __ASM volatile ("cpsie i" : : : "memory");
 132:Drivers/CMSIS/Include/cmsis_gcc.h **** }
 133:Drivers/CMSIS/Include/cmsis_gcc.h **** 
 134:Drivers/CMSIS/Include/cmsis_gcc.h **** 
 135:Drivers/CMSIS/Include/cmsis_gcc.h **** /**
 136:Drivers/CMSIS/Include/cmsis_gcc.h ****   \brief   Disable IRQ Interrupts
 137:Drivers/CMSIS/Include/cmsis_gcc.h ****   \details Disables IRQ interrupts by setting the I-bit in the CPSR.
 138:Drivers/CMSIS/Include/cmsis_gcc.h ****            Can only be executed in Privileged modes.
 139:Drivers/CMSIS/Include/cmsis_gcc.h ****  */
 140:Drivers/CMSIS/Include/cmsis_gcc.h **** __STATIC_FORCEINLINE void __disable_irq(void)
ARM GAS  C:\Users\saite\AppData\Local\Temp\ccxfQYnf.s 			page 8


  89              		.loc 2 140 27 view .LVU11
  90              	.LBB277:
 141:Drivers/CMSIS/Include/cmsis_gcc.h **** {
 142:Drivers/CMSIS/Include/cmsis_gcc.h ****   __ASM volatile ("cpsid i" : : : "memory");
  91              		.loc 2 142 3 view .LVU12
  92              		.syntax unified
  93              	@ 142 "Drivers/CMSIS/Include/cmsis_gcc.h" 1
  94 0000 72B6     		cpsid i
  95              	@ 0 "" 2
  96              		.thumb
  97              		.syntax unified
  98              	.L6:
  99              	.LBE277:
 100              	.LBE276:
 175:Core/Src/main.cpp ****   while (1)
 101              		.loc 1 175 3 discriminator 1 view .LVU13
 102              		.loc 1 175 3 discriminator 1 view .LVU14
 103 0002 FEE7     		b	.L6
 104              		.cfi_endproc
 105              	.LFE1336:
 106              		.cantunwind
 107              		.fnend
 109              		.section	.text._Z18SystemClock_Configv,"ax",%progbits
 110              		.align	1
 111              		.global	_Z18SystemClock_Configv
 112              		.syntax unified
 113              		.thumb
 114              		.thumb_func
 115              		.fpu fpv4-sp-d16
 117              	_Z18SystemClock_Configv:
 118              		.fnstart
 119              	.LFB1334:
 119:Core/Src/main.cpp ****   RCC_OscInitTypeDef RCC_OscInitStruct = {0};
 120              		.loc 1 119 1 view -0
 121              		.cfi_startproc
 122              		@ args = 0, pretend = 0, frame = 80
 123              		@ frame_needed = 0, uses_anonymous_args = 0
 124 0000 00B5     		push	{lr}
 125              		.save {lr}
 126              	.LCFI1:
 127              		.cfi_def_cfa_offset 4
 128              		.cfi_offset 14, -4
 129              		.pad #84
 130 0002 95B0     		sub	sp, sp, #84
 131              	.LCFI2:
 132              		.cfi_def_cfa_offset 88
 120:Core/Src/main.cpp ****   RCC_ClkInitTypeDef RCC_ClkInitStruct = {0};
 133              		.loc 1 120 3 view .LVU16
 120:Core/Src/main.cpp ****   RCC_ClkInitTypeDef RCC_ClkInitStruct = {0};
 134              		.loc 1 120 22 is_stmt 0 view .LVU17
 135 0004 3022     		movs	r2, #48
 136 0006 0021     		movs	r1, #0
 137 0008 08A8     		add	r0, sp, #32
 138 000a FFF7FEFF 		bl	memset
 139              	.LVL5:
 121:Core/Src/main.cpp **** 
 140              		.loc 1 121 3 is_stmt 1 view .LVU18
ARM GAS  C:\Users\saite\AppData\Local\Temp\ccxfQYnf.s 			page 9


 121:Core/Src/main.cpp **** 
 141              		.loc 1 121 22 is_stmt 0 view .LVU19
 142 000e 0023     		movs	r3, #0
 143 0010 0393     		str	r3, [sp, #12]
 144 0012 0493     		str	r3, [sp, #16]
 145 0014 0593     		str	r3, [sp, #20]
 146 0016 0693     		str	r3, [sp, #24]
 147 0018 0793     		str	r3, [sp, #28]
 125:Core/Src/main.cpp ****   __HAL_PWR_VOLTAGESCALING_CONFIG(PWR_REGULATOR_VOLTAGE_SCALE1);
 148              		.loc 1 125 3 is_stmt 1 view .LVU20
 149              	.LBB278:
 125:Core/Src/main.cpp ****   __HAL_PWR_VOLTAGESCALING_CONFIG(PWR_REGULATOR_VOLTAGE_SCALE1);
 150              		.loc 1 125 3 view .LVU21
 151 001a 0193     		str	r3, [sp, #4]
 125:Core/Src/main.cpp ****   __HAL_PWR_VOLTAGESCALING_CONFIG(PWR_REGULATOR_VOLTAGE_SCALE1);
 152              		.loc 1 125 3 view .LVU22
 153 001c 1F4A     		ldr	r2, .L13
 154 001e 116C     		ldr	r1, [r2, #64]
 155 0020 41F08051 		orr	r1, r1, #268435456
 156 0024 1164     		str	r1, [r2, #64]
 125:Core/Src/main.cpp ****   __HAL_PWR_VOLTAGESCALING_CONFIG(PWR_REGULATOR_VOLTAGE_SCALE1);
 157              		.loc 1 125 3 view .LVU23
 158 0026 126C     		ldr	r2, [r2, #64]
 159 0028 02F08052 		and	r2, r2, #268435456
 160 002c 0192     		str	r2, [sp, #4]
 125:Core/Src/main.cpp ****   __HAL_PWR_VOLTAGESCALING_CONFIG(PWR_REGULATOR_VOLTAGE_SCALE1);
 161              		.loc 1 125 3 view .LVU24
 162 002e 019A     		ldr	r2, [sp, #4]
 163              	.LBE278:
 126:Core/Src/main.cpp ****   /** Initializes the RCC Oscillators according to the specified parameters
 164              		.loc 1 126 3 view .LVU25
 165              	.LBB279:
 126:Core/Src/main.cpp ****   /** Initializes the RCC Oscillators according to the specified parameters
 166              		.loc 1 126 3 view .LVU26
 167 0030 0293     		str	r3, [sp, #8]
 126:Core/Src/main.cpp ****   /** Initializes the RCC Oscillators according to the specified parameters
 168              		.loc 1 126 3 view .LVU27
 169 0032 1B4A     		ldr	r2, .L13+4
 170 0034 1168     		ldr	r1, [r2]
 171 0036 41F48041 		orr	r1, r1, #16384
 172 003a 1160     		str	r1, [r2]
 126:Core/Src/main.cpp ****   /** Initializes the RCC Oscillators according to the specified parameters
 173              		.loc 1 126 3 view .LVU28
 174 003c 1268     		ldr	r2, [r2]
 175 003e 02F48042 		and	r2, r2, #16384
 176 0042 0292     		str	r2, [sp, #8]
 126:Core/Src/main.cpp ****   /** Initializes the RCC Oscillators according to the specified parameters
 177              		.loc 1 126 3 view .LVU29
 178 0044 029A     		ldr	r2, [sp, #8]
 179              	.LBE279:
 130:Core/Src/main.cpp ****   RCC_OscInitStruct.HSIState = RCC_HSI_ON;
 180              		.loc 1 130 3 view .LVU30
 130:Core/Src/main.cpp ****   RCC_OscInitStruct.HSIState = RCC_HSI_ON;
 181              		.loc 1 130 36 is_stmt 0 view .LVU31
 182 0046 0222     		movs	r2, #2
 183 0048 0892     		str	r2, [sp, #32]
 131:Core/Src/main.cpp ****   RCC_OscInitStruct.HSICalibrationValue = RCC_HSICALIBRATION_DEFAULT;
ARM GAS  C:\Users\saite\AppData\Local\Temp\ccxfQYnf.s 			page 10


 184              		.loc 1 131 3 is_stmt 1 view .LVU32
 131:Core/Src/main.cpp ****   RCC_OscInitStruct.HSICalibrationValue = RCC_HSICALIBRATION_DEFAULT;
 185              		.loc 1 131 30 is_stmt 0 view .LVU33
 186 004a 0121     		movs	r1, #1
 187 004c 0B91     		str	r1, [sp, #44]
 132:Core/Src/main.cpp ****   RCC_OscInitStruct.PLL.PLLState = RCC_PLL_ON;
 188              		.loc 1 132 3 is_stmt 1 view .LVU34
 132:Core/Src/main.cpp ****   RCC_OscInitStruct.PLL.PLLState = RCC_PLL_ON;
 189              		.loc 1 132 41 is_stmt 0 view .LVU35
 190 004e 1021     		movs	r1, #16
 191 0050 0C91     		str	r1, [sp, #48]
 133:Core/Src/main.cpp ****   RCC_OscInitStruct.PLL.PLLSource = RCC_PLLSOURCE_HSI;
 192              		.loc 1 133 3 is_stmt 1 view .LVU36
 133:Core/Src/main.cpp ****   RCC_OscInitStruct.PLL.PLLSource = RCC_PLLSOURCE_HSI;
 193              		.loc 1 133 34 is_stmt 0 view .LVU37
 194 0052 0E92     		str	r2, [sp, #56]
 134:Core/Src/main.cpp ****   RCC_OscInitStruct.PLL.PLLM = 8;
 195              		.loc 1 134 3 is_stmt 1 view .LVU38
 134:Core/Src/main.cpp ****   RCC_OscInitStruct.PLL.PLLM = 8;
 196              		.loc 1 134 35 is_stmt 0 view .LVU39
 197 0054 0F93     		str	r3, [sp, #60]
 135:Core/Src/main.cpp ****   RCC_OscInitStruct.PLL.PLLN = 168;
 198              		.loc 1 135 3 is_stmt 1 view .LVU40
 135:Core/Src/main.cpp ****   RCC_OscInitStruct.PLL.PLLN = 168;
 199              		.loc 1 135 30 is_stmt 0 view .LVU41
 200 0056 0823     		movs	r3, #8
 201 0058 1093     		str	r3, [sp, #64]
 136:Core/Src/main.cpp ****   RCC_OscInitStruct.PLL.PLLP = RCC_PLLP_DIV2;
 202              		.loc 1 136 3 is_stmt 1 view .LVU42
 136:Core/Src/main.cpp ****   RCC_OscInitStruct.PLL.PLLP = RCC_PLLP_DIV2;
 203              		.loc 1 136 30 is_stmt 0 view .LVU43
 204 005a A823     		movs	r3, #168
 205 005c 1193     		str	r3, [sp, #68]
 137:Core/Src/main.cpp ****   RCC_OscInitStruct.PLL.PLLQ = 4;
 206              		.loc 1 137 3 is_stmt 1 view .LVU44
 137:Core/Src/main.cpp ****   RCC_OscInitStruct.PLL.PLLQ = 4;
 207              		.loc 1 137 30 is_stmt 0 view .LVU45
 208 005e 1292     		str	r2, [sp, #72]
 138:Core/Src/main.cpp ****   if (HAL_RCC_OscConfig(&RCC_OscInitStruct) != HAL_OK)
 209              		.loc 1 138 3 is_stmt 1 view .LVU46
 138:Core/Src/main.cpp ****   if (HAL_RCC_OscConfig(&RCC_OscInitStruct) != HAL_OK)
 210              		.loc 1 138 30 is_stmt 0 view .LVU47
 211 0060 0423     		movs	r3, #4
 212 0062 1393     		str	r3, [sp, #76]
 139:Core/Src/main.cpp ****   {
 213              		.loc 1 139 3 is_stmt 1 view .LVU48
 139:Core/Src/main.cpp ****   {
 214              		.loc 1 139 24 is_stmt 0 view .LVU49
 215 0064 08A8     		add	r0, sp, #32
 216 0066 FFF7FEFF 		bl	HAL_RCC_OscConfig
 217              	.LVL6:
 139:Core/Src/main.cpp ****   {
 218              		.loc 1 139 3 view .LVU50
 219 006a 98B9     		cbnz	r0, .L11
 145:Core/Src/main.cpp ****                               |RCC_CLOCKTYPE_PCLK1|RCC_CLOCKTYPE_PCLK2;
 220              		.loc 1 145 3 is_stmt 1 view .LVU51
 145:Core/Src/main.cpp ****                               |RCC_CLOCKTYPE_PCLK1|RCC_CLOCKTYPE_PCLK2;
ARM GAS  C:\Users\saite\AppData\Local\Temp\ccxfQYnf.s 			page 11


 221              		.loc 1 145 31 is_stmt 0 view .LVU52
 222 006c 0F23     		movs	r3, #15
 223 006e 0393     		str	r3, [sp, #12]
 147:Core/Src/main.cpp ****   RCC_ClkInitStruct.AHBCLKDivider = RCC_SYSCLK_DIV1;
 224              		.loc 1 147 3 is_stmt 1 view .LVU53
 147:Core/Src/main.cpp ****   RCC_ClkInitStruct.AHBCLKDivider = RCC_SYSCLK_DIV1;
 225              		.loc 1 147 34 is_stmt 0 view .LVU54
 226 0070 0223     		movs	r3, #2
 227 0072 0493     		str	r3, [sp, #16]
 148:Core/Src/main.cpp ****   RCC_ClkInitStruct.APB1CLKDivider = RCC_HCLK_DIV4;
 228              		.loc 1 148 3 is_stmt 1 view .LVU55
 148:Core/Src/main.cpp ****   RCC_ClkInitStruct.APB1CLKDivider = RCC_HCLK_DIV4;
 229              		.loc 1 148 35 is_stmt 0 view .LVU56
 230 0074 0023     		movs	r3, #0
 231 0076 0593     		str	r3, [sp, #20]
 149:Core/Src/main.cpp ****   RCC_ClkInitStruct.APB2CLKDivider = RCC_HCLK_DIV2;
 232              		.loc 1 149 3 is_stmt 1 view .LVU57
 149:Core/Src/main.cpp ****   RCC_ClkInitStruct.APB2CLKDivider = RCC_HCLK_DIV2;
 233              		.loc 1 149 36 is_stmt 0 view .LVU58
 234 0078 4FF4A053 		mov	r3, #5120
 235 007c 0693     		str	r3, [sp, #24]
 150:Core/Src/main.cpp **** 
 236              		.loc 1 150 3 is_stmt 1 view .LVU59
 150:Core/Src/main.cpp **** 
 237              		.loc 1 150 36 is_stmt 0 view .LVU60
 238 007e 4FF48053 		mov	r3, #4096
 239 0082 0793     		str	r3, [sp, #28]
 152:Core/Src/main.cpp ****   {
 240              		.loc 1 152 3 is_stmt 1 view .LVU61
 152:Core/Src/main.cpp ****   {
 241              		.loc 1 152 26 is_stmt 0 view .LVU62
 242 0084 0521     		movs	r1, #5
 243 0086 03A8     		add	r0, sp, #12
 244 0088 FFF7FEFF 		bl	HAL_RCC_ClockConfig
 245              	.LVL7:
 152:Core/Src/main.cpp ****   {
 246              		.loc 1 152 3 view .LVU63
 247 008c 20B9     		cbnz	r0, .L12
 156:Core/Src/main.cpp **** 
 248              		.loc 1 156 1 view .LVU64
 249 008e 15B0     		add	sp, sp, #84
 250              	.LCFI3:
 251              		.cfi_remember_state
 252              		.cfi_def_cfa_offset 4
 253              		@ sp needed
 254 0090 5DF804FB 		ldr	pc, [sp], #4
 255              	.L11:
 256              	.LCFI4:
 257              		.cfi_restore_state
 141:Core/Src/main.cpp ****   }
 258              		.loc 1 141 5 is_stmt 1 view .LVU65
 141:Core/Src/main.cpp ****   }
 259              		.loc 1 141 18 is_stmt 0 view .LVU66
 260 0094 FFF7FEFF 		bl	Error_Handler
 261              	.LVL8:
 262              	.L12:
 154:Core/Src/main.cpp ****   }
ARM GAS  C:\Users\saite\AppData\Local\Temp\ccxfQYnf.s 			page 12


 263              		.loc 1 154 5 is_stmt 1 view .LVU67
 154:Core/Src/main.cpp ****   }
 264              		.loc 1 154 18 is_stmt 0 view .LVU68
 265 0098 FFF7FEFF 		bl	Error_Handler
 266              	.LVL9:
 267              	.L14:
 268              		.align	2
 269              	.L13:
 270 009c 00380240 		.word	1073887232
 271 00a0 00700040 		.word	1073770496
 272              		.cfi_endproc
 273              	.LFE1334:
 274              		.fnend
 276              		.section	.rodata._ZNSt6vectorIiSaIiEE17_M_realloc_insertIJiEEEvN9__gnu_cxx17__normal_iteratorIPiS1
 277              		.align	2
 278              	.LC0:
 279 0000 76656374 		.ascii	"vector::_M_realloc_insert\000"
 279      6F723A3A 
 279      5F4D5F72 
 279      65616C6C 
 279      6F635F69 
 280              		.section	.text._ZNSt6vectorIiSaIiEE17_M_realloc_insertIJiEEEvN9__gnu_cxx17__normal_iteratorIPiS1_E
 281              		.align	1
 282              		.weak	_ZNSt6vectorIiSaIiEE17_M_realloc_insertIJiEEEvN9__gnu_cxx17__normal_iteratorIPiS1_EEDpOT_
 283              		.syntax unified
 284              		.thumb
 285              		.thumb_func
 286              		.fpu fpv4-sp-d16
 288              	_ZNSt6vectorIiSaIiEE17_M_realloc_insertIJiEEEvN9__gnu_cxx17__normal_iteratorIPiS1_EEDpOT_:
 289              		.fnstart
 290              	.LVL10:
 291              	.LFB1390:
 292              		.file 3 "c:\\tools\\gcc-arm-none-eabi-10-2020-q4-major\\arm-none-eabi\\include\\c++\\10.2.1\\bits\
   1:c:\tools\gcc-arm-none-eabi-10-2020-q4-major\arm-none-eabi\include\c++\10.2.1\bits\vector.tcc **** // Vector implementation (out of line) -*- C++ -*-
   2:c:\tools\gcc-arm-none-eabi-10-2020-q4-major\arm-none-eabi\include\c++\10.2.1\bits\vector.tcc **** 
   3:c:\tools\gcc-arm-none-eabi-10-2020-q4-major\arm-none-eabi\include\c++\10.2.1\bits\vector.tcc **** // Copyright (C) 2001-2020 Free Software Foundation, Inc.
   4:c:\tools\gcc-arm-none-eabi-10-2020-q4-major\arm-none-eabi\include\c++\10.2.1\bits\vector.tcc **** //
   5:c:\tools\gcc-arm-none-eabi-10-2020-q4-major\arm-none-eabi\include\c++\10.2.1\bits\vector.tcc **** // This file is part of the GNU ISO C++ Library.  This library is free
   6:c:\tools\gcc-arm-none-eabi-10-2020-q4-major\arm-none-eabi\include\c++\10.2.1\bits\vector.tcc **** // software; you can redistribute it and/or modify it under the
   7:c:\tools\gcc-arm-none-eabi-10-2020-q4-major\arm-none-eabi\include\c++\10.2.1\bits\vector.tcc **** // terms of the GNU General Public License as published by the
   8:c:\tools\gcc-arm-none-eabi-10-2020-q4-major\arm-none-eabi\include\c++\10.2.1\bits\vector.tcc **** // Free Software Foundation; either version 3, or (at your option)
   9:c:\tools\gcc-arm-none-eabi-10-2020-q4-major\arm-none-eabi\include\c++\10.2.1\bits\vector.tcc **** // any later version.
  10:c:\tools\gcc-arm-none-eabi-10-2020-q4-major\arm-none-eabi\include\c++\10.2.1\bits\vector.tcc **** 
  11:c:\tools\gcc-arm-none-eabi-10-2020-q4-major\arm-none-eabi\include\c++\10.2.1\bits\vector.tcc **** // This library is distributed in the hope that it will be useful,
  12:c:\tools\gcc-arm-none-eabi-10-2020-q4-major\arm-none-eabi\include\c++\10.2.1\bits\vector.tcc **** // but WITHOUT ANY WARRANTY; without even the implied warranty of
  13:c:\tools\gcc-arm-none-eabi-10-2020-q4-major\arm-none-eabi\include\c++\10.2.1\bits\vector.tcc **** // MERCHANTABILITY or FITNESS FOR A PARTICULAR PURPOSE.  See the
  14:c:\tools\gcc-arm-none-eabi-10-2020-q4-major\arm-none-eabi\include\c++\10.2.1\bits\vector.tcc **** // GNU General Public License for more details.
  15:c:\tools\gcc-arm-none-eabi-10-2020-q4-major\arm-none-eabi\include\c++\10.2.1\bits\vector.tcc **** 
  16:c:\tools\gcc-arm-none-eabi-10-2020-q4-major\arm-none-eabi\include\c++\10.2.1\bits\vector.tcc **** // Under Section 7 of GPL version 3, you are granted additional
  17:c:\tools\gcc-arm-none-eabi-10-2020-q4-major\arm-none-eabi\include\c++\10.2.1\bits\vector.tcc **** // permissions described in the GCC Runtime Library Exception, version
  18:c:\tools\gcc-arm-none-eabi-10-2020-q4-major\arm-none-eabi\include\c++\10.2.1\bits\vector.tcc **** // 3.1, as published by the Free Software Foundation.
  19:c:\tools\gcc-arm-none-eabi-10-2020-q4-major\arm-none-eabi\include\c++\10.2.1\bits\vector.tcc **** 
  20:c:\tools\gcc-arm-none-eabi-10-2020-q4-major\arm-none-eabi\include\c++\10.2.1\bits\vector.tcc **** // You should have received a copy of the GNU General Public License and
  21:c:\tools\gcc-arm-none-eabi-10-2020-q4-major\arm-none-eabi\include\c++\10.2.1\bits\vector.tcc **** // a copy of the GCC Runtime Library Exception along with this program;
  22:c:\tools\gcc-arm-none-eabi-10-2020-q4-major\arm-none-eabi\include\c++\10.2.1\bits\vector.tcc **** // see the files COPYING3 and COPYING.RUNTIME respectively.  If not, see
  23:c:\tools\gcc-arm-none-eabi-10-2020-q4-major\arm-none-eabi\include\c++\10.2.1\bits\vector.tcc **** // <http://www.gnu.org/licenses/>.
  24:c:\tools\gcc-arm-none-eabi-10-2020-q4-major\arm-none-eabi\include\c++\10.2.1\bits\vector.tcc **** 
ARM GAS  C:\Users\saite\AppData\Local\Temp\ccxfQYnf.s 			page 13


  25:c:\tools\gcc-arm-none-eabi-10-2020-q4-major\arm-none-eabi\include\c++\10.2.1\bits\vector.tcc **** /*
  26:c:\tools\gcc-arm-none-eabi-10-2020-q4-major\arm-none-eabi\include\c++\10.2.1\bits\vector.tcc ****  *
  27:c:\tools\gcc-arm-none-eabi-10-2020-q4-major\arm-none-eabi\include\c++\10.2.1\bits\vector.tcc ****  * Copyright (c) 1994
  28:c:\tools\gcc-arm-none-eabi-10-2020-q4-major\arm-none-eabi\include\c++\10.2.1\bits\vector.tcc ****  * Hewlett-Packard Company
  29:c:\tools\gcc-arm-none-eabi-10-2020-q4-major\arm-none-eabi\include\c++\10.2.1\bits\vector.tcc ****  *
  30:c:\tools\gcc-arm-none-eabi-10-2020-q4-major\arm-none-eabi\include\c++\10.2.1\bits\vector.tcc ****  * Permission to use, copy, modify, distribute and sell this software
  31:c:\tools\gcc-arm-none-eabi-10-2020-q4-major\arm-none-eabi\include\c++\10.2.1\bits\vector.tcc ****  * and its documentation for any purpose is hereby granted without fee,
  32:c:\tools\gcc-arm-none-eabi-10-2020-q4-major\arm-none-eabi\include\c++\10.2.1\bits\vector.tcc ****  * provided that the above copyright notice appear in all copies and
  33:c:\tools\gcc-arm-none-eabi-10-2020-q4-major\arm-none-eabi\include\c++\10.2.1\bits\vector.tcc ****  * that both that copyright notice and this permission notice appear
  34:c:\tools\gcc-arm-none-eabi-10-2020-q4-major\arm-none-eabi\include\c++\10.2.1\bits\vector.tcc ****  * in supporting documentation.  Hewlett-Packard Company makes no
  35:c:\tools\gcc-arm-none-eabi-10-2020-q4-major\arm-none-eabi\include\c++\10.2.1\bits\vector.tcc ****  * representations about the suitability of this software for any
  36:c:\tools\gcc-arm-none-eabi-10-2020-q4-major\arm-none-eabi\include\c++\10.2.1\bits\vector.tcc ****  * purpose.  It is provided "as is" without express or implied warranty.
  37:c:\tools\gcc-arm-none-eabi-10-2020-q4-major\arm-none-eabi\include\c++\10.2.1\bits\vector.tcc ****  *
  38:c:\tools\gcc-arm-none-eabi-10-2020-q4-major\arm-none-eabi\include\c++\10.2.1\bits\vector.tcc ****  *
  39:c:\tools\gcc-arm-none-eabi-10-2020-q4-major\arm-none-eabi\include\c++\10.2.1\bits\vector.tcc ****  * Copyright (c) 1996
  40:c:\tools\gcc-arm-none-eabi-10-2020-q4-major\arm-none-eabi\include\c++\10.2.1\bits\vector.tcc ****  * Silicon Graphics Computer Systems, Inc.
  41:c:\tools\gcc-arm-none-eabi-10-2020-q4-major\arm-none-eabi\include\c++\10.2.1\bits\vector.tcc ****  *
  42:c:\tools\gcc-arm-none-eabi-10-2020-q4-major\arm-none-eabi\include\c++\10.2.1\bits\vector.tcc ****  * Permission to use, copy, modify, distribute and sell this software
  43:c:\tools\gcc-arm-none-eabi-10-2020-q4-major\arm-none-eabi\include\c++\10.2.1\bits\vector.tcc ****  * and its documentation for any purpose is hereby granted without fee,
  44:c:\tools\gcc-arm-none-eabi-10-2020-q4-major\arm-none-eabi\include\c++\10.2.1\bits\vector.tcc ****  * provided that the above copyright notice appear in all copies and
  45:c:\tools\gcc-arm-none-eabi-10-2020-q4-major\arm-none-eabi\include\c++\10.2.1\bits\vector.tcc ****  * that both that copyright notice and this permission notice appear
  46:c:\tools\gcc-arm-none-eabi-10-2020-q4-major\arm-none-eabi\include\c++\10.2.1\bits\vector.tcc ****  * in supporting documentation.  Silicon Graphics makes no
  47:c:\tools\gcc-arm-none-eabi-10-2020-q4-major\arm-none-eabi\include\c++\10.2.1\bits\vector.tcc ****  * representations about the suitability of this  software for any
  48:c:\tools\gcc-arm-none-eabi-10-2020-q4-major\arm-none-eabi\include\c++\10.2.1\bits\vector.tcc ****  * purpose.  It is provided "as is" without express or implied warranty.
  49:c:\tools\gcc-arm-none-eabi-10-2020-q4-major\arm-none-eabi\include\c++\10.2.1\bits\vector.tcc ****  */
  50:c:\tools\gcc-arm-none-eabi-10-2020-q4-major\arm-none-eabi\include\c++\10.2.1\bits\vector.tcc **** 
  51:c:\tools\gcc-arm-none-eabi-10-2020-q4-major\arm-none-eabi\include\c++\10.2.1\bits\vector.tcc **** /** @file bits/vector.tcc
  52:c:\tools\gcc-arm-none-eabi-10-2020-q4-major\arm-none-eabi\include\c++\10.2.1\bits\vector.tcc ****  *  This is an internal header file, included by other library headers.
  53:c:\tools\gcc-arm-none-eabi-10-2020-q4-major\arm-none-eabi\include\c++\10.2.1\bits\vector.tcc ****  *  Do not attempt to use it directly. @headername{vector}
  54:c:\tools\gcc-arm-none-eabi-10-2020-q4-major\arm-none-eabi\include\c++\10.2.1\bits\vector.tcc ****  */
  55:c:\tools\gcc-arm-none-eabi-10-2020-q4-major\arm-none-eabi\include\c++\10.2.1\bits\vector.tcc **** 
  56:c:\tools\gcc-arm-none-eabi-10-2020-q4-major\arm-none-eabi\include\c++\10.2.1\bits\vector.tcc **** #ifndef _VECTOR_TCC
  57:c:\tools\gcc-arm-none-eabi-10-2020-q4-major\arm-none-eabi\include\c++\10.2.1\bits\vector.tcc **** #define _VECTOR_TCC 1
  58:c:\tools\gcc-arm-none-eabi-10-2020-q4-major\arm-none-eabi\include\c++\10.2.1\bits\vector.tcc **** 
  59:c:\tools\gcc-arm-none-eabi-10-2020-q4-major\arm-none-eabi\include\c++\10.2.1\bits\vector.tcc **** namespace std _GLIBCXX_VISIBILITY(default)
  60:c:\tools\gcc-arm-none-eabi-10-2020-q4-major\arm-none-eabi\include\c++\10.2.1\bits\vector.tcc **** {
  61:c:\tools\gcc-arm-none-eabi-10-2020-q4-major\arm-none-eabi\include\c++\10.2.1\bits\vector.tcc **** _GLIBCXX_BEGIN_NAMESPACE_VERSION
  62:c:\tools\gcc-arm-none-eabi-10-2020-q4-major\arm-none-eabi\include\c++\10.2.1\bits\vector.tcc **** _GLIBCXX_BEGIN_NAMESPACE_CONTAINER
  63:c:\tools\gcc-arm-none-eabi-10-2020-q4-major\arm-none-eabi\include\c++\10.2.1\bits\vector.tcc **** 
  64:c:\tools\gcc-arm-none-eabi-10-2020-q4-major\arm-none-eabi\include\c++\10.2.1\bits\vector.tcc ****   template<typename _Tp, typename _Alloc>
  65:c:\tools\gcc-arm-none-eabi-10-2020-q4-major\arm-none-eabi\include\c++\10.2.1\bits\vector.tcc ****     void
  66:c:\tools\gcc-arm-none-eabi-10-2020-q4-major\arm-none-eabi\include\c++\10.2.1\bits\vector.tcc ****     vector<_Tp, _Alloc>::
  67:c:\tools\gcc-arm-none-eabi-10-2020-q4-major\arm-none-eabi\include\c++\10.2.1\bits\vector.tcc ****     reserve(size_type __n)
  68:c:\tools\gcc-arm-none-eabi-10-2020-q4-major\arm-none-eabi\include\c++\10.2.1\bits\vector.tcc ****     {
  69:c:\tools\gcc-arm-none-eabi-10-2020-q4-major\arm-none-eabi\include\c++\10.2.1\bits\vector.tcc ****       if (__n > this->max_size())
  70:c:\tools\gcc-arm-none-eabi-10-2020-q4-major\arm-none-eabi\include\c++\10.2.1\bits\vector.tcc **** 	__throw_length_error(__N("vector::reserve"));
  71:c:\tools\gcc-arm-none-eabi-10-2020-q4-major\arm-none-eabi\include\c++\10.2.1\bits\vector.tcc ****       if (this->capacity() < __n)
  72:c:\tools\gcc-arm-none-eabi-10-2020-q4-major\arm-none-eabi\include\c++\10.2.1\bits\vector.tcc **** 	{
  73:c:\tools\gcc-arm-none-eabi-10-2020-q4-major\arm-none-eabi\include\c++\10.2.1\bits\vector.tcc **** 	  const size_type __old_size = size();
  74:c:\tools\gcc-arm-none-eabi-10-2020-q4-major\arm-none-eabi\include\c++\10.2.1\bits\vector.tcc **** 	  pointer __tmp;
  75:c:\tools\gcc-arm-none-eabi-10-2020-q4-major\arm-none-eabi\include\c++\10.2.1\bits\vector.tcc **** #if __cplusplus >= 201103L
  76:c:\tools\gcc-arm-none-eabi-10-2020-q4-major\arm-none-eabi\include\c++\10.2.1\bits\vector.tcc **** 	  if _GLIBCXX17_CONSTEXPR (_S_use_relocate())
  77:c:\tools\gcc-arm-none-eabi-10-2020-q4-major\arm-none-eabi\include\c++\10.2.1\bits\vector.tcc **** 	    {
  78:c:\tools\gcc-arm-none-eabi-10-2020-q4-major\arm-none-eabi\include\c++\10.2.1\bits\vector.tcc **** 	      __tmp = this->_M_allocate(__n);
  79:c:\tools\gcc-arm-none-eabi-10-2020-q4-major\arm-none-eabi\include\c++\10.2.1\bits\vector.tcc **** 	      _S_relocate(this->_M_impl._M_start, this->_M_impl._M_finish,
  80:c:\tools\gcc-arm-none-eabi-10-2020-q4-major\arm-none-eabi\include\c++\10.2.1\bits\vector.tcc **** 			  __tmp, _M_get_Tp_allocator());
  81:c:\tools\gcc-arm-none-eabi-10-2020-q4-major\arm-none-eabi\include\c++\10.2.1\bits\vector.tcc **** 	    }
ARM GAS  C:\Users\saite\AppData\Local\Temp\ccxfQYnf.s 			page 14


  82:c:\tools\gcc-arm-none-eabi-10-2020-q4-major\arm-none-eabi\include\c++\10.2.1\bits\vector.tcc **** 	  else
  83:c:\tools\gcc-arm-none-eabi-10-2020-q4-major\arm-none-eabi\include\c++\10.2.1\bits\vector.tcc **** #endif
  84:c:\tools\gcc-arm-none-eabi-10-2020-q4-major\arm-none-eabi\include\c++\10.2.1\bits\vector.tcc **** 	    {
  85:c:\tools\gcc-arm-none-eabi-10-2020-q4-major\arm-none-eabi\include\c++\10.2.1\bits\vector.tcc **** 	      __tmp = _M_allocate_and_copy(__n,
  86:c:\tools\gcc-arm-none-eabi-10-2020-q4-major\arm-none-eabi\include\c++\10.2.1\bits\vector.tcc **** 		_GLIBCXX_MAKE_MOVE_IF_NOEXCEPT_ITERATOR(this->_M_impl._M_start),
  87:c:\tools\gcc-arm-none-eabi-10-2020-q4-major\arm-none-eabi\include\c++\10.2.1\bits\vector.tcc **** 		_GLIBCXX_MAKE_MOVE_IF_NOEXCEPT_ITERATOR(this->_M_impl._M_finish));
  88:c:\tools\gcc-arm-none-eabi-10-2020-q4-major\arm-none-eabi\include\c++\10.2.1\bits\vector.tcc **** 	      std::_Destroy(this->_M_impl._M_start, this->_M_impl._M_finish,
  89:c:\tools\gcc-arm-none-eabi-10-2020-q4-major\arm-none-eabi\include\c++\10.2.1\bits\vector.tcc **** 			    _M_get_Tp_allocator());
  90:c:\tools\gcc-arm-none-eabi-10-2020-q4-major\arm-none-eabi\include\c++\10.2.1\bits\vector.tcc **** 	    }
  91:c:\tools\gcc-arm-none-eabi-10-2020-q4-major\arm-none-eabi\include\c++\10.2.1\bits\vector.tcc **** 	  _GLIBCXX_ASAN_ANNOTATE_REINIT;
  92:c:\tools\gcc-arm-none-eabi-10-2020-q4-major\arm-none-eabi\include\c++\10.2.1\bits\vector.tcc **** 	  _M_deallocate(this->_M_impl._M_start,
  93:c:\tools\gcc-arm-none-eabi-10-2020-q4-major\arm-none-eabi\include\c++\10.2.1\bits\vector.tcc **** 			this->_M_impl._M_end_of_storage
  94:c:\tools\gcc-arm-none-eabi-10-2020-q4-major\arm-none-eabi\include\c++\10.2.1\bits\vector.tcc **** 			- this->_M_impl._M_start);
  95:c:\tools\gcc-arm-none-eabi-10-2020-q4-major\arm-none-eabi\include\c++\10.2.1\bits\vector.tcc **** 	  this->_M_impl._M_start = __tmp;
  96:c:\tools\gcc-arm-none-eabi-10-2020-q4-major\arm-none-eabi\include\c++\10.2.1\bits\vector.tcc **** 	  this->_M_impl._M_finish = __tmp + __old_size;
  97:c:\tools\gcc-arm-none-eabi-10-2020-q4-major\arm-none-eabi\include\c++\10.2.1\bits\vector.tcc **** 	  this->_M_impl._M_end_of_storage = this->_M_impl._M_start + __n;
  98:c:\tools\gcc-arm-none-eabi-10-2020-q4-major\arm-none-eabi\include\c++\10.2.1\bits\vector.tcc **** 	}
  99:c:\tools\gcc-arm-none-eabi-10-2020-q4-major\arm-none-eabi\include\c++\10.2.1\bits\vector.tcc ****     }
 100:c:\tools\gcc-arm-none-eabi-10-2020-q4-major\arm-none-eabi\include\c++\10.2.1\bits\vector.tcc **** 
 101:c:\tools\gcc-arm-none-eabi-10-2020-q4-major\arm-none-eabi\include\c++\10.2.1\bits\vector.tcc **** #if __cplusplus >= 201103L
 102:c:\tools\gcc-arm-none-eabi-10-2020-q4-major\arm-none-eabi\include\c++\10.2.1\bits\vector.tcc ****   template<typename _Tp, typename _Alloc>
 103:c:\tools\gcc-arm-none-eabi-10-2020-q4-major\arm-none-eabi\include\c++\10.2.1\bits\vector.tcc ****     template<typename... _Args>
 104:c:\tools\gcc-arm-none-eabi-10-2020-q4-major\arm-none-eabi\include\c++\10.2.1\bits\vector.tcc **** #if __cplusplus > 201402L
 105:c:\tools\gcc-arm-none-eabi-10-2020-q4-major\arm-none-eabi\include\c++\10.2.1\bits\vector.tcc ****       typename vector<_Tp, _Alloc>::reference
 106:c:\tools\gcc-arm-none-eabi-10-2020-q4-major\arm-none-eabi\include\c++\10.2.1\bits\vector.tcc **** #else
 107:c:\tools\gcc-arm-none-eabi-10-2020-q4-major\arm-none-eabi\include\c++\10.2.1\bits\vector.tcc ****       void
 108:c:\tools\gcc-arm-none-eabi-10-2020-q4-major\arm-none-eabi\include\c++\10.2.1\bits\vector.tcc **** #endif
 109:c:\tools\gcc-arm-none-eabi-10-2020-q4-major\arm-none-eabi\include\c++\10.2.1\bits\vector.tcc ****       vector<_Tp, _Alloc>::
 110:c:\tools\gcc-arm-none-eabi-10-2020-q4-major\arm-none-eabi\include\c++\10.2.1\bits\vector.tcc ****       emplace_back(_Args&&... __args)
 111:c:\tools\gcc-arm-none-eabi-10-2020-q4-major\arm-none-eabi\include\c++\10.2.1\bits\vector.tcc ****       {
 112:c:\tools\gcc-arm-none-eabi-10-2020-q4-major\arm-none-eabi\include\c++\10.2.1\bits\vector.tcc **** 	if (this->_M_impl._M_finish != this->_M_impl._M_end_of_storage)
 113:c:\tools\gcc-arm-none-eabi-10-2020-q4-major\arm-none-eabi\include\c++\10.2.1\bits\vector.tcc **** 	  {
 114:c:\tools\gcc-arm-none-eabi-10-2020-q4-major\arm-none-eabi\include\c++\10.2.1\bits\vector.tcc **** 	    _GLIBCXX_ASAN_ANNOTATE_GROW(1);
 115:c:\tools\gcc-arm-none-eabi-10-2020-q4-major\arm-none-eabi\include\c++\10.2.1\bits\vector.tcc **** 	    _Alloc_traits::construct(this->_M_impl, this->_M_impl._M_finish,
 116:c:\tools\gcc-arm-none-eabi-10-2020-q4-major\arm-none-eabi\include\c++\10.2.1\bits\vector.tcc **** 				     std::forward<_Args>(__args)...);
 117:c:\tools\gcc-arm-none-eabi-10-2020-q4-major\arm-none-eabi\include\c++\10.2.1\bits\vector.tcc **** 	    ++this->_M_impl._M_finish;
 118:c:\tools\gcc-arm-none-eabi-10-2020-q4-major\arm-none-eabi\include\c++\10.2.1\bits\vector.tcc **** 	    _GLIBCXX_ASAN_ANNOTATE_GREW(1);
 119:c:\tools\gcc-arm-none-eabi-10-2020-q4-major\arm-none-eabi\include\c++\10.2.1\bits\vector.tcc **** 	  }
 120:c:\tools\gcc-arm-none-eabi-10-2020-q4-major\arm-none-eabi\include\c++\10.2.1\bits\vector.tcc **** 	else
 121:c:\tools\gcc-arm-none-eabi-10-2020-q4-major\arm-none-eabi\include\c++\10.2.1\bits\vector.tcc **** 	  _M_realloc_insert(end(), std::forward<_Args>(__args)...);
 122:c:\tools\gcc-arm-none-eabi-10-2020-q4-major\arm-none-eabi\include\c++\10.2.1\bits\vector.tcc **** #if __cplusplus > 201402L
 123:c:\tools\gcc-arm-none-eabi-10-2020-q4-major\arm-none-eabi\include\c++\10.2.1\bits\vector.tcc **** 	return back();
 124:c:\tools\gcc-arm-none-eabi-10-2020-q4-major\arm-none-eabi\include\c++\10.2.1\bits\vector.tcc **** #endif
 125:c:\tools\gcc-arm-none-eabi-10-2020-q4-major\arm-none-eabi\include\c++\10.2.1\bits\vector.tcc ****       }
 126:c:\tools\gcc-arm-none-eabi-10-2020-q4-major\arm-none-eabi\include\c++\10.2.1\bits\vector.tcc **** #endif
 127:c:\tools\gcc-arm-none-eabi-10-2020-q4-major\arm-none-eabi\include\c++\10.2.1\bits\vector.tcc **** 
 128:c:\tools\gcc-arm-none-eabi-10-2020-q4-major\arm-none-eabi\include\c++\10.2.1\bits\vector.tcc ****   template<typename _Tp, typename _Alloc>
 129:c:\tools\gcc-arm-none-eabi-10-2020-q4-major\arm-none-eabi\include\c++\10.2.1\bits\vector.tcc ****     typename vector<_Tp, _Alloc>::iterator
 130:c:\tools\gcc-arm-none-eabi-10-2020-q4-major\arm-none-eabi\include\c++\10.2.1\bits\vector.tcc ****     vector<_Tp, _Alloc>::
 131:c:\tools\gcc-arm-none-eabi-10-2020-q4-major\arm-none-eabi\include\c++\10.2.1\bits\vector.tcc **** #if __cplusplus >= 201103L
 132:c:\tools\gcc-arm-none-eabi-10-2020-q4-major\arm-none-eabi\include\c++\10.2.1\bits\vector.tcc ****     insert(const_iterator __position, const value_type& __x)
 133:c:\tools\gcc-arm-none-eabi-10-2020-q4-major\arm-none-eabi\include\c++\10.2.1\bits\vector.tcc **** #else
 134:c:\tools\gcc-arm-none-eabi-10-2020-q4-major\arm-none-eabi\include\c++\10.2.1\bits\vector.tcc ****     insert(iterator __position, const value_type& __x)
 135:c:\tools\gcc-arm-none-eabi-10-2020-q4-major\arm-none-eabi\include\c++\10.2.1\bits\vector.tcc **** #endif
 136:c:\tools\gcc-arm-none-eabi-10-2020-q4-major\arm-none-eabi\include\c++\10.2.1\bits\vector.tcc ****     {
 137:c:\tools\gcc-arm-none-eabi-10-2020-q4-major\arm-none-eabi\include\c++\10.2.1\bits\vector.tcc ****       const size_type __n = __position - begin();
 138:c:\tools\gcc-arm-none-eabi-10-2020-q4-major\arm-none-eabi\include\c++\10.2.1\bits\vector.tcc ****       if (this->_M_impl._M_finish != this->_M_impl._M_end_of_storage)
ARM GAS  C:\Users\saite\AppData\Local\Temp\ccxfQYnf.s 			page 15


 139:c:\tools\gcc-arm-none-eabi-10-2020-q4-major\arm-none-eabi\include\c++\10.2.1\bits\vector.tcc **** 	if (__position == end())
 140:c:\tools\gcc-arm-none-eabi-10-2020-q4-major\arm-none-eabi\include\c++\10.2.1\bits\vector.tcc **** 	  {
 141:c:\tools\gcc-arm-none-eabi-10-2020-q4-major\arm-none-eabi\include\c++\10.2.1\bits\vector.tcc **** 	    _GLIBCXX_ASAN_ANNOTATE_GROW(1);
 142:c:\tools\gcc-arm-none-eabi-10-2020-q4-major\arm-none-eabi\include\c++\10.2.1\bits\vector.tcc **** 	    _Alloc_traits::construct(this->_M_impl, this->_M_impl._M_finish,
 143:c:\tools\gcc-arm-none-eabi-10-2020-q4-major\arm-none-eabi\include\c++\10.2.1\bits\vector.tcc **** 				     __x);
 144:c:\tools\gcc-arm-none-eabi-10-2020-q4-major\arm-none-eabi\include\c++\10.2.1\bits\vector.tcc **** 	    ++this->_M_impl._M_finish;
 145:c:\tools\gcc-arm-none-eabi-10-2020-q4-major\arm-none-eabi\include\c++\10.2.1\bits\vector.tcc **** 	    _GLIBCXX_ASAN_ANNOTATE_GREW(1);
 146:c:\tools\gcc-arm-none-eabi-10-2020-q4-major\arm-none-eabi\include\c++\10.2.1\bits\vector.tcc **** 	  }
 147:c:\tools\gcc-arm-none-eabi-10-2020-q4-major\arm-none-eabi\include\c++\10.2.1\bits\vector.tcc **** 	else
 148:c:\tools\gcc-arm-none-eabi-10-2020-q4-major\arm-none-eabi\include\c++\10.2.1\bits\vector.tcc **** 	  {
 149:c:\tools\gcc-arm-none-eabi-10-2020-q4-major\arm-none-eabi\include\c++\10.2.1\bits\vector.tcc **** #if __cplusplus >= 201103L
 150:c:\tools\gcc-arm-none-eabi-10-2020-q4-major\arm-none-eabi\include\c++\10.2.1\bits\vector.tcc **** 	    const auto __pos = begin() + (__position - cbegin());
 151:c:\tools\gcc-arm-none-eabi-10-2020-q4-major\arm-none-eabi\include\c++\10.2.1\bits\vector.tcc **** 	    // __x could be an existing element of this vector, so make a
 152:c:\tools\gcc-arm-none-eabi-10-2020-q4-major\arm-none-eabi\include\c++\10.2.1\bits\vector.tcc **** 	    // copy of it before _M_insert_aux moves elements around.
 153:c:\tools\gcc-arm-none-eabi-10-2020-q4-major\arm-none-eabi\include\c++\10.2.1\bits\vector.tcc **** 	    _Temporary_value __x_copy(this, __x);
 154:c:\tools\gcc-arm-none-eabi-10-2020-q4-major\arm-none-eabi\include\c++\10.2.1\bits\vector.tcc **** 	    _M_insert_aux(__pos, std::move(__x_copy._M_val()));
 155:c:\tools\gcc-arm-none-eabi-10-2020-q4-major\arm-none-eabi\include\c++\10.2.1\bits\vector.tcc **** #else
 156:c:\tools\gcc-arm-none-eabi-10-2020-q4-major\arm-none-eabi\include\c++\10.2.1\bits\vector.tcc **** 	    _M_insert_aux(__position, __x);
 157:c:\tools\gcc-arm-none-eabi-10-2020-q4-major\arm-none-eabi\include\c++\10.2.1\bits\vector.tcc **** #endif
 158:c:\tools\gcc-arm-none-eabi-10-2020-q4-major\arm-none-eabi\include\c++\10.2.1\bits\vector.tcc **** 	  }
 159:c:\tools\gcc-arm-none-eabi-10-2020-q4-major\arm-none-eabi\include\c++\10.2.1\bits\vector.tcc ****       else
 160:c:\tools\gcc-arm-none-eabi-10-2020-q4-major\arm-none-eabi\include\c++\10.2.1\bits\vector.tcc **** #if __cplusplus >= 201103L
 161:c:\tools\gcc-arm-none-eabi-10-2020-q4-major\arm-none-eabi\include\c++\10.2.1\bits\vector.tcc **** 	_M_realloc_insert(begin() + (__position - cbegin()), __x);
 162:c:\tools\gcc-arm-none-eabi-10-2020-q4-major\arm-none-eabi\include\c++\10.2.1\bits\vector.tcc **** #else
 163:c:\tools\gcc-arm-none-eabi-10-2020-q4-major\arm-none-eabi\include\c++\10.2.1\bits\vector.tcc **** 	_M_realloc_insert(__position, __x);
 164:c:\tools\gcc-arm-none-eabi-10-2020-q4-major\arm-none-eabi\include\c++\10.2.1\bits\vector.tcc **** #endif
 165:c:\tools\gcc-arm-none-eabi-10-2020-q4-major\arm-none-eabi\include\c++\10.2.1\bits\vector.tcc **** 
 166:c:\tools\gcc-arm-none-eabi-10-2020-q4-major\arm-none-eabi\include\c++\10.2.1\bits\vector.tcc ****       return iterator(this->_M_impl._M_start + __n);
 167:c:\tools\gcc-arm-none-eabi-10-2020-q4-major\arm-none-eabi\include\c++\10.2.1\bits\vector.tcc ****     }
 168:c:\tools\gcc-arm-none-eabi-10-2020-q4-major\arm-none-eabi\include\c++\10.2.1\bits\vector.tcc **** 
 169:c:\tools\gcc-arm-none-eabi-10-2020-q4-major\arm-none-eabi\include\c++\10.2.1\bits\vector.tcc ****   template<typename _Tp, typename _Alloc>
 170:c:\tools\gcc-arm-none-eabi-10-2020-q4-major\arm-none-eabi\include\c++\10.2.1\bits\vector.tcc ****     typename vector<_Tp, _Alloc>::iterator
 171:c:\tools\gcc-arm-none-eabi-10-2020-q4-major\arm-none-eabi\include\c++\10.2.1\bits\vector.tcc ****     vector<_Tp, _Alloc>::
 172:c:\tools\gcc-arm-none-eabi-10-2020-q4-major\arm-none-eabi\include\c++\10.2.1\bits\vector.tcc ****     _M_erase(iterator __position)
 173:c:\tools\gcc-arm-none-eabi-10-2020-q4-major\arm-none-eabi\include\c++\10.2.1\bits\vector.tcc ****     {
 174:c:\tools\gcc-arm-none-eabi-10-2020-q4-major\arm-none-eabi\include\c++\10.2.1\bits\vector.tcc ****       if (__position + 1 != end())
 175:c:\tools\gcc-arm-none-eabi-10-2020-q4-major\arm-none-eabi\include\c++\10.2.1\bits\vector.tcc **** 	_GLIBCXX_MOVE3(__position + 1, end(), __position);
 176:c:\tools\gcc-arm-none-eabi-10-2020-q4-major\arm-none-eabi\include\c++\10.2.1\bits\vector.tcc ****       --this->_M_impl._M_finish;
 177:c:\tools\gcc-arm-none-eabi-10-2020-q4-major\arm-none-eabi\include\c++\10.2.1\bits\vector.tcc ****       _Alloc_traits::destroy(this->_M_impl, this->_M_impl._M_finish);
 178:c:\tools\gcc-arm-none-eabi-10-2020-q4-major\arm-none-eabi\include\c++\10.2.1\bits\vector.tcc ****       _GLIBCXX_ASAN_ANNOTATE_SHRINK(1);
 179:c:\tools\gcc-arm-none-eabi-10-2020-q4-major\arm-none-eabi\include\c++\10.2.1\bits\vector.tcc ****       return __position;
 180:c:\tools\gcc-arm-none-eabi-10-2020-q4-major\arm-none-eabi\include\c++\10.2.1\bits\vector.tcc ****     }
 181:c:\tools\gcc-arm-none-eabi-10-2020-q4-major\arm-none-eabi\include\c++\10.2.1\bits\vector.tcc **** 
 182:c:\tools\gcc-arm-none-eabi-10-2020-q4-major\arm-none-eabi\include\c++\10.2.1\bits\vector.tcc ****   template<typename _Tp, typename _Alloc>
 183:c:\tools\gcc-arm-none-eabi-10-2020-q4-major\arm-none-eabi\include\c++\10.2.1\bits\vector.tcc ****     typename vector<_Tp, _Alloc>::iterator
 184:c:\tools\gcc-arm-none-eabi-10-2020-q4-major\arm-none-eabi\include\c++\10.2.1\bits\vector.tcc ****     vector<_Tp, _Alloc>::
 185:c:\tools\gcc-arm-none-eabi-10-2020-q4-major\arm-none-eabi\include\c++\10.2.1\bits\vector.tcc ****     _M_erase(iterator __first, iterator __last)
 186:c:\tools\gcc-arm-none-eabi-10-2020-q4-major\arm-none-eabi\include\c++\10.2.1\bits\vector.tcc ****     {
 187:c:\tools\gcc-arm-none-eabi-10-2020-q4-major\arm-none-eabi\include\c++\10.2.1\bits\vector.tcc ****       if (__first != __last)
 188:c:\tools\gcc-arm-none-eabi-10-2020-q4-major\arm-none-eabi\include\c++\10.2.1\bits\vector.tcc **** 	{
 189:c:\tools\gcc-arm-none-eabi-10-2020-q4-major\arm-none-eabi\include\c++\10.2.1\bits\vector.tcc **** 	  if (__last != end())
 190:c:\tools\gcc-arm-none-eabi-10-2020-q4-major\arm-none-eabi\include\c++\10.2.1\bits\vector.tcc **** 	    _GLIBCXX_MOVE3(__last, end(), __first);
 191:c:\tools\gcc-arm-none-eabi-10-2020-q4-major\arm-none-eabi\include\c++\10.2.1\bits\vector.tcc **** 	  _M_erase_at_end(__first.base() + (end() - __last));
 192:c:\tools\gcc-arm-none-eabi-10-2020-q4-major\arm-none-eabi\include\c++\10.2.1\bits\vector.tcc **** 	}
 193:c:\tools\gcc-arm-none-eabi-10-2020-q4-major\arm-none-eabi\include\c++\10.2.1\bits\vector.tcc ****       return __first;
 194:c:\tools\gcc-arm-none-eabi-10-2020-q4-major\arm-none-eabi\include\c++\10.2.1\bits\vector.tcc ****     }
 195:c:\tools\gcc-arm-none-eabi-10-2020-q4-major\arm-none-eabi\include\c++\10.2.1\bits\vector.tcc **** 
ARM GAS  C:\Users\saite\AppData\Local\Temp\ccxfQYnf.s 			page 16


 196:c:\tools\gcc-arm-none-eabi-10-2020-q4-major\arm-none-eabi\include\c++\10.2.1\bits\vector.tcc ****   template<typename _Tp, typename _Alloc>
 197:c:\tools\gcc-arm-none-eabi-10-2020-q4-major\arm-none-eabi\include\c++\10.2.1\bits\vector.tcc ****     vector<_Tp, _Alloc>&
 198:c:\tools\gcc-arm-none-eabi-10-2020-q4-major\arm-none-eabi\include\c++\10.2.1\bits\vector.tcc ****     vector<_Tp, _Alloc>::
 199:c:\tools\gcc-arm-none-eabi-10-2020-q4-major\arm-none-eabi\include\c++\10.2.1\bits\vector.tcc ****     operator=(const vector<_Tp, _Alloc>& __x)
 200:c:\tools\gcc-arm-none-eabi-10-2020-q4-major\arm-none-eabi\include\c++\10.2.1\bits\vector.tcc ****     {
 201:c:\tools\gcc-arm-none-eabi-10-2020-q4-major\arm-none-eabi\include\c++\10.2.1\bits\vector.tcc ****       if (&__x != this)
 202:c:\tools\gcc-arm-none-eabi-10-2020-q4-major\arm-none-eabi\include\c++\10.2.1\bits\vector.tcc **** 	{
 203:c:\tools\gcc-arm-none-eabi-10-2020-q4-major\arm-none-eabi\include\c++\10.2.1\bits\vector.tcc **** 	  _GLIBCXX_ASAN_ANNOTATE_REINIT;
 204:c:\tools\gcc-arm-none-eabi-10-2020-q4-major\arm-none-eabi\include\c++\10.2.1\bits\vector.tcc **** #if __cplusplus >= 201103L
 205:c:\tools\gcc-arm-none-eabi-10-2020-q4-major\arm-none-eabi\include\c++\10.2.1\bits\vector.tcc **** 	  if (_Alloc_traits::_S_propagate_on_copy_assign())
 206:c:\tools\gcc-arm-none-eabi-10-2020-q4-major\arm-none-eabi\include\c++\10.2.1\bits\vector.tcc **** 	    {
 207:c:\tools\gcc-arm-none-eabi-10-2020-q4-major\arm-none-eabi\include\c++\10.2.1\bits\vector.tcc **** 	      if (!_Alloc_traits::_S_always_equal()
 208:c:\tools\gcc-arm-none-eabi-10-2020-q4-major\arm-none-eabi\include\c++\10.2.1\bits\vector.tcc **** 	          && _M_get_Tp_allocator() != __x._M_get_Tp_allocator())
 209:c:\tools\gcc-arm-none-eabi-10-2020-q4-major\arm-none-eabi\include\c++\10.2.1\bits\vector.tcc **** 	        {
 210:c:\tools\gcc-arm-none-eabi-10-2020-q4-major\arm-none-eabi\include\c++\10.2.1\bits\vector.tcc **** 		  // replacement allocator cannot free existing storage
 211:c:\tools\gcc-arm-none-eabi-10-2020-q4-major\arm-none-eabi\include\c++\10.2.1\bits\vector.tcc **** 		  this->clear();
 212:c:\tools\gcc-arm-none-eabi-10-2020-q4-major\arm-none-eabi\include\c++\10.2.1\bits\vector.tcc **** 		  _M_deallocate(this->_M_impl._M_start,
 213:c:\tools\gcc-arm-none-eabi-10-2020-q4-major\arm-none-eabi\include\c++\10.2.1\bits\vector.tcc **** 				this->_M_impl._M_end_of_storage
 214:c:\tools\gcc-arm-none-eabi-10-2020-q4-major\arm-none-eabi\include\c++\10.2.1\bits\vector.tcc **** 				- this->_M_impl._M_start);
 215:c:\tools\gcc-arm-none-eabi-10-2020-q4-major\arm-none-eabi\include\c++\10.2.1\bits\vector.tcc **** 		  this->_M_impl._M_start = nullptr;
 216:c:\tools\gcc-arm-none-eabi-10-2020-q4-major\arm-none-eabi\include\c++\10.2.1\bits\vector.tcc **** 		  this->_M_impl._M_finish = nullptr;
 217:c:\tools\gcc-arm-none-eabi-10-2020-q4-major\arm-none-eabi\include\c++\10.2.1\bits\vector.tcc **** 		  this->_M_impl._M_end_of_storage = nullptr;
 218:c:\tools\gcc-arm-none-eabi-10-2020-q4-major\arm-none-eabi\include\c++\10.2.1\bits\vector.tcc **** 		}
 219:c:\tools\gcc-arm-none-eabi-10-2020-q4-major\arm-none-eabi\include\c++\10.2.1\bits\vector.tcc **** 	      std::__alloc_on_copy(_M_get_Tp_allocator(),
 220:c:\tools\gcc-arm-none-eabi-10-2020-q4-major\arm-none-eabi\include\c++\10.2.1\bits\vector.tcc **** 				   __x._M_get_Tp_allocator());
 221:c:\tools\gcc-arm-none-eabi-10-2020-q4-major\arm-none-eabi\include\c++\10.2.1\bits\vector.tcc **** 	    }
 222:c:\tools\gcc-arm-none-eabi-10-2020-q4-major\arm-none-eabi\include\c++\10.2.1\bits\vector.tcc **** #endif
 223:c:\tools\gcc-arm-none-eabi-10-2020-q4-major\arm-none-eabi\include\c++\10.2.1\bits\vector.tcc **** 	  const size_type __xlen = __x.size();
 224:c:\tools\gcc-arm-none-eabi-10-2020-q4-major\arm-none-eabi\include\c++\10.2.1\bits\vector.tcc **** 	  if (__xlen > capacity())
 225:c:\tools\gcc-arm-none-eabi-10-2020-q4-major\arm-none-eabi\include\c++\10.2.1\bits\vector.tcc **** 	    {
 226:c:\tools\gcc-arm-none-eabi-10-2020-q4-major\arm-none-eabi\include\c++\10.2.1\bits\vector.tcc **** 	      pointer __tmp = _M_allocate_and_copy(__xlen, __x.begin(),
 227:c:\tools\gcc-arm-none-eabi-10-2020-q4-major\arm-none-eabi\include\c++\10.2.1\bits\vector.tcc **** 						   __x.end());
 228:c:\tools\gcc-arm-none-eabi-10-2020-q4-major\arm-none-eabi\include\c++\10.2.1\bits\vector.tcc **** 	      std::_Destroy(this->_M_impl._M_start, this->_M_impl._M_finish,
 229:c:\tools\gcc-arm-none-eabi-10-2020-q4-major\arm-none-eabi\include\c++\10.2.1\bits\vector.tcc **** 			    _M_get_Tp_allocator());
 230:c:\tools\gcc-arm-none-eabi-10-2020-q4-major\arm-none-eabi\include\c++\10.2.1\bits\vector.tcc **** 	      _M_deallocate(this->_M_impl._M_start,
 231:c:\tools\gcc-arm-none-eabi-10-2020-q4-major\arm-none-eabi\include\c++\10.2.1\bits\vector.tcc **** 			    this->_M_impl._M_end_of_storage
 232:c:\tools\gcc-arm-none-eabi-10-2020-q4-major\arm-none-eabi\include\c++\10.2.1\bits\vector.tcc **** 			    - this->_M_impl._M_start);
 233:c:\tools\gcc-arm-none-eabi-10-2020-q4-major\arm-none-eabi\include\c++\10.2.1\bits\vector.tcc **** 	      this->_M_impl._M_start = __tmp;
 234:c:\tools\gcc-arm-none-eabi-10-2020-q4-major\arm-none-eabi\include\c++\10.2.1\bits\vector.tcc **** 	      this->_M_impl._M_end_of_storage = this->_M_impl._M_start + __xlen;
 235:c:\tools\gcc-arm-none-eabi-10-2020-q4-major\arm-none-eabi\include\c++\10.2.1\bits\vector.tcc **** 	    }
 236:c:\tools\gcc-arm-none-eabi-10-2020-q4-major\arm-none-eabi\include\c++\10.2.1\bits\vector.tcc **** 	  else if (size() >= __xlen)
 237:c:\tools\gcc-arm-none-eabi-10-2020-q4-major\arm-none-eabi\include\c++\10.2.1\bits\vector.tcc **** 	    {
 238:c:\tools\gcc-arm-none-eabi-10-2020-q4-major\arm-none-eabi\include\c++\10.2.1\bits\vector.tcc **** 	      std::_Destroy(std::copy(__x.begin(), __x.end(), begin()),
 239:c:\tools\gcc-arm-none-eabi-10-2020-q4-major\arm-none-eabi\include\c++\10.2.1\bits\vector.tcc **** 			    end(), _M_get_Tp_allocator());
 240:c:\tools\gcc-arm-none-eabi-10-2020-q4-major\arm-none-eabi\include\c++\10.2.1\bits\vector.tcc **** 	    }
 241:c:\tools\gcc-arm-none-eabi-10-2020-q4-major\arm-none-eabi\include\c++\10.2.1\bits\vector.tcc **** 	  else
 242:c:\tools\gcc-arm-none-eabi-10-2020-q4-major\arm-none-eabi\include\c++\10.2.1\bits\vector.tcc **** 	    {
 243:c:\tools\gcc-arm-none-eabi-10-2020-q4-major\arm-none-eabi\include\c++\10.2.1\bits\vector.tcc **** 	      std::copy(__x._M_impl._M_start, __x._M_impl._M_start + size(),
 244:c:\tools\gcc-arm-none-eabi-10-2020-q4-major\arm-none-eabi\include\c++\10.2.1\bits\vector.tcc **** 			this->_M_impl._M_start);
 245:c:\tools\gcc-arm-none-eabi-10-2020-q4-major\arm-none-eabi\include\c++\10.2.1\bits\vector.tcc **** 	      std::__uninitialized_copy_a(__x._M_impl._M_start + size(),
 246:c:\tools\gcc-arm-none-eabi-10-2020-q4-major\arm-none-eabi\include\c++\10.2.1\bits\vector.tcc **** 					  __x._M_impl._M_finish,
 247:c:\tools\gcc-arm-none-eabi-10-2020-q4-major\arm-none-eabi\include\c++\10.2.1\bits\vector.tcc **** 					  this->_M_impl._M_finish,
 248:c:\tools\gcc-arm-none-eabi-10-2020-q4-major\arm-none-eabi\include\c++\10.2.1\bits\vector.tcc **** 					  _M_get_Tp_allocator());
 249:c:\tools\gcc-arm-none-eabi-10-2020-q4-major\arm-none-eabi\include\c++\10.2.1\bits\vector.tcc **** 	    }
 250:c:\tools\gcc-arm-none-eabi-10-2020-q4-major\arm-none-eabi\include\c++\10.2.1\bits\vector.tcc **** 	  this->_M_impl._M_finish = this->_M_impl._M_start + __xlen;
 251:c:\tools\gcc-arm-none-eabi-10-2020-q4-major\arm-none-eabi\include\c++\10.2.1\bits\vector.tcc **** 	}
 252:c:\tools\gcc-arm-none-eabi-10-2020-q4-major\arm-none-eabi\include\c++\10.2.1\bits\vector.tcc ****       return *this;
ARM GAS  C:\Users\saite\AppData\Local\Temp\ccxfQYnf.s 			page 17


 253:c:\tools\gcc-arm-none-eabi-10-2020-q4-major\arm-none-eabi\include\c++\10.2.1\bits\vector.tcc ****     }
 254:c:\tools\gcc-arm-none-eabi-10-2020-q4-major\arm-none-eabi\include\c++\10.2.1\bits\vector.tcc **** 
 255:c:\tools\gcc-arm-none-eabi-10-2020-q4-major\arm-none-eabi\include\c++\10.2.1\bits\vector.tcc ****   template<typename _Tp, typename _Alloc>
 256:c:\tools\gcc-arm-none-eabi-10-2020-q4-major\arm-none-eabi\include\c++\10.2.1\bits\vector.tcc ****     void
 257:c:\tools\gcc-arm-none-eabi-10-2020-q4-major\arm-none-eabi\include\c++\10.2.1\bits\vector.tcc ****     vector<_Tp, _Alloc>::
 258:c:\tools\gcc-arm-none-eabi-10-2020-q4-major\arm-none-eabi\include\c++\10.2.1\bits\vector.tcc ****     _M_fill_assign(size_t __n, const value_type& __val)
 259:c:\tools\gcc-arm-none-eabi-10-2020-q4-major\arm-none-eabi\include\c++\10.2.1\bits\vector.tcc ****     {
 260:c:\tools\gcc-arm-none-eabi-10-2020-q4-major\arm-none-eabi\include\c++\10.2.1\bits\vector.tcc ****       if (__n > capacity())
 261:c:\tools\gcc-arm-none-eabi-10-2020-q4-major\arm-none-eabi\include\c++\10.2.1\bits\vector.tcc **** 	{
 262:c:\tools\gcc-arm-none-eabi-10-2020-q4-major\arm-none-eabi\include\c++\10.2.1\bits\vector.tcc **** 	  vector __tmp(__n, __val, _M_get_Tp_allocator());
 263:c:\tools\gcc-arm-none-eabi-10-2020-q4-major\arm-none-eabi\include\c++\10.2.1\bits\vector.tcc **** 	  __tmp._M_impl._M_swap_data(this->_M_impl);
 264:c:\tools\gcc-arm-none-eabi-10-2020-q4-major\arm-none-eabi\include\c++\10.2.1\bits\vector.tcc **** 	}
 265:c:\tools\gcc-arm-none-eabi-10-2020-q4-major\arm-none-eabi\include\c++\10.2.1\bits\vector.tcc ****       else if (__n > size())
 266:c:\tools\gcc-arm-none-eabi-10-2020-q4-major\arm-none-eabi\include\c++\10.2.1\bits\vector.tcc **** 	{
 267:c:\tools\gcc-arm-none-eabi-10-2020-q4-major\arm-none-eabi\include\c++\10.2.1\bits\vector.tcc **** 	  std::fill(begin(), end(), __val);
 268:c:\tools\gcc-arm-none-eabi-10-2020-q4-major\arm-none-eabi\include\c++\10.2.1\bits\vector.tcc **** 	  const size_type __add = __n - size();
 269:c:\tools\gcc-arm-none-eabi-10-2020-q4-major\arm-none-eabi\include\c++\10.2.1\bits\vector.tcc **** 	  _GLIBCXX_ASAN_ANNOTATE_GROW(__add);
 270:c:\tools\gcc-arm-none-eabi-10-2020-q4-major\arm-none-eabi\include\c++\10.2.1\bits\vector.tcc **** 	  this->_M_impl._M_finish =
 271:c:\tools\gcc-arm-none-eabi-10-2020-q4-major\arm-none-eabi\include\c++\10.2.1\bits\vector.tcc **** 	    std::__uninitialized_fill_n_a(this->_M_impl._M_finish,
 272:c:\tools\gcc-arm-none-eabi-10-2020-q4-major\arm-none-eabi\include\c++\10.2.1\bits\vector.tcc **** 					  __add, __val, _M_get_Tp_allocator());
 273:c:\tools\gcc-arm-none-eabi-10-2020-q4-major\arm-none-eabi\include\c++\10.2.1\bits\vector.tcc **** 	  _GLIBCXX_ASAN_ANNOTATE_GREW(__add);
 274:c:\tools\gcc-arm-none-eabi-10-2020-q4-major\arm-none-eabi\include\c++\10.2.1\bits\vector.tcc **** 	}
 275:c:\tools\gcc-arm-none-eabi-10-2020-q4-major\arm-none-eabi\include\c++\10.2.1\bits\vector.tcc ****       else
 276:c:\tools\gcc-arm-none-eabi-10-2020-q4-major\arm-none-eabi\include\c++\10.2.1\bits\vector.tcc ****         _M_erase_at_end(std::fill_n(this->_M_impl._M_start, __n, __val));
 277:c:\tools\gcc-arm-none-eabi-10-2020-q4-major\arm-none-eabi\include\c++\10.2.1\bits\vector.tcc ****     }
 278:c:\tools\gcc-arm-none-eabi-10-2020-q4-major\arm-none-eabi\include\c++\10.2.1\bits\vector.tcc **** 
 279:c:\tools\gcc-arm-none-eabi-10-2020-q4-major\arm-none-eabi\include\c++\10.2.1\bits\vector.tcc ****   template<typename _Tp, typename _Alloc>
 280:c:\tools\gcc-arm-none-eabi-10-2020-q4-major\arm-none-eabi\include\c++\10.2.1\bits\vector.tcc ****     template<typename _InputIterator>
 281:c:\tools\gcc-arm-none-eabi-10-2020-q4-major\arm-none-eabi\include\c++\10.2.1\bits\vector.tcc ****       void
 282:c:\tools\gcc-arm-none-eabi-10-2020-q4-major\arm-none-eabi\include\c++\10.2.1\bits\vector.tcc ****       vector<_Tp, _Alloc>::
 283:c:\tools\gcc-arm-none-eabi-10-2020-q4-major\arm-none-eabi\include\c++\10.2.1\bits\vector.tcc ****       _M_assign_aux(_InputIterator __first, _InputIterator __last,
 284:c:\tools\gcc-arm-none-eabi-10-2020-q4-major\arm-none-eabi\include\c++\10.2.1\bits\vector.tcc **** 		    std::input_iterator_tag)
 285:c:\tools\gcc-arm-none-eabi-10-2020-q4-major\arm-none-eabi\include\c++\10.2.1\bits\vector.tcc ****       {
 286:c:\tools\gcc-arm-none-eabi-10-2020-q4-major\arm-none-eabi\include\c++\10.2.1\bits\vector.tcc **** 	pointer __cur(this->_M_impl._M_start);
 287:c:\tools\gcc-arm-none-eabi-10-2020-q4-major\arm-none-eabi\include\c++\10.2.1\bits\vector.tcc **** 	for (; __first != __last && __cur != this->_M_impl._M_finish;
 288:c:\tools\gcc-arm-none-eabi-10-2020-q4-major\arm-none-eabi\include\c++\10.2.1\bits\vector.tcc **** 	     ++__cur, (void)++__first)
 289:c:\tools\gcc-arm-none-eabi-10-2020-q4-major\arm-none-eabi\include\c++\10.2.1\bits\vector.tcc **** 	  *__cur = *__first;
 290:c:\tools\gcc-arm-none-eabi-10-2020-q4-major\arm-none-eabi\include\c++\10.2.1\bits\vector.tcc **** 	if (__first == __last)
 291:c:\tools\gcc-arm-none-eabi-10-2020-q4-major\arm-none-eabi\include\c++\10.2.1\bits\vector.tcc **** 	  _M_erase_at_end(__cur);
 292:c:\tools\gcc-arm-none-eabi-10-2020-q4-major\arm-none-eabi\include\c++\10.2.1\bits\vector.tcc **** 	else
 293:c:\tools\gcc-arm-none-eabi-10-2020-q4-major\arm-none-eabi\include\c++\10.2.1\bits\vector.tcc **** 	  _M_range_insert(end(), __first, __last,
 294:c:\tools\gcc-arm-none-eabi-10-2020-q4-major\arm-none-eabi\include\c++\10.2.1\bits\vector.tcc **** 			  std::__iterator_category(__first));
 295:c:\tools\gcc-arm-none-eabi-10-2020-q4-major\arm-none-eabi\include\c++\10.2.1\bits\vector.tcc ****       }
 296:c:\tools\gcc-arm-none-eabi-10-2020-q4-major\arm-none-eabi\include\c++\10.2.1\bits\vector.tcc **** 
 297:c:\tools\gcc-arm-none-eabi-10-2020-q4-major\arm-none-eabi\include\c++\10.2.1\bits\vector.tcc ****   template<typename _Tp, typename _Alloc>
 298:c:\tools\gcc-arm-none-eabi-10-2020-q4-major\arm-none-eabi\include\c++\10.2.1\bits\vector.tcc ****     template<typename _ForwardIterator>
 299:c:\tools\gcc-arm-none-eabi-10-2020-q4-major\arm-none-eabi\include\c++\10.2.1\bits\vector.tcc ****       void
 300:c:\tools\gcc-arm-none-eabi-10-2020-q4-major\arm-none-eabi\include\c++\10.2.1\bits\vector.tcc ****       vector<_Tp, _Alloc>::
 301:c:\tools\gcc-arm-none-eabi-10-2020-q4-major\arm-none-eabi\include\c++\10.2.1\bits\vector.tcc ****       _M_assign_aux(_ForwardIterator __first, _ForwardIterator __last,
 302:c:\tools\gcc-arm-none-eabi-10-2020-q4-major\arm-none-eabi\include\c++\10.2.1\bits\vector.tcc **** 		    std::forward_iterator_tag)
 303:c:\tools\gcc-arm-none-eabi-10-2020-q4-major\arm-none-eabi\include\c++\10.2.1\bits\vector.tcc ****       {
 304:c:\tools\gcc-arm-none-eabi-10-2020-q4-major\arm-none-eabi\include\c++\10.2.1\bits\vector.tcc **** 	const size_type __len = std::distance(__first, __last);
 305:c:\tools\gcc-arm-none-eabi-10-2020-q4-major\arm-none-eabi\include\c++\10.2.1\bits\vector.tcc **** 
 306:c:\tools\gcc-arm-none-eabi-10-2020-q4-major\arm-none-eabi\include\c++\10.2.1\bits\vector.tcc **** 	if (__len > capacity())
 307:c:\tools\gcc-arm-none-eabi-10-2020-q4-major\arm-none-eabi\include\c++\10.2.1\bits\vector.tcc **** 	  {
 308:c:\tools\gcc-arm-none-eabi-10-2020-q4-major\arm-none-eabi\include\c++\10.2.1\bits\vector.tcc **** 	    _S_check_init_len(__len, _M_get_Tp_allocator());
 309:c:\tools\gcc-arm-none-eabi-10-2020-q4-major\arm-none-eabi\include\c++\10.2.1\bits\vector.tcc **** 	    pointer __tmp(_M_allocate_and_copy(__len, __first, __last));
ARM GAS  C:\Users\saite\AppData\Local\Temp\ccxfQYnf.s 			page 18


 310:c:\tools\gcc-arm-none-eabi-10-2020-q4-major\arm-none-eabi\include\c++\10.2.1\bits\vector.tcc **** 	    std::_Destroy(this->_M_impl._M_start, this->_M_impl._M_finish,
 311:c:\tools\gcc-arm-none-eabi-10-2020-q4-major\arm-none-eabi\include\c++\10.2.1\bits\vector.tcc **** 			  _M_get_Tp_allocator());
 312:c:\tools\gcc-arm-none-eabi-10-2020-q4-major\arm-none-eabi\include\c++\10.2.1\bits\vector.tcc **** 	    _GLIBCXX_ASAN_ANNOTATE_REINIT;
 313:c:\tools\gcc-arm-none-eabi-10-2020-q4-major\arm-none-eabi\include\c++\10.2.1\bits\vector.tcc **** 	    _M_deallocate(this->_M_impl._M_start,
 314:c:\tools\gcc-arm-none-eabi-10-2020-q4-major\arm-none-eabi\include\c++\10.2.1\bits\vector.tcc **** 			  this->_M_impl._M_end_of_storage
 315:c:\tools\gcc-arm-none-eabi-10-2020-q4-major\arm-none-eabi\include\c++\10.2.1\bits\vector.tcc **** 			  - this->_M_impl._M_start);
 316:c:\tools\gcc-arm-none-eabi-10-2020-q4-major\arm-none-eabi\include\c++\10.2.1\bits\vector.tcc **** 	    this->_M_impl._M_start = __tmp;
 317:c:\tools\gcc-arm-none-eabi-10-2020-q4-major\arm-none-eabi\include\c++\10.2.1\bits\vector.tcc **** 	    this->_M_impl._M_finish = this->_M_impl._M_start + __len;
 318:c:\tools\gcc-arm-none-eabi-10-2020-q4-major\arm-none-eabi\include\c++\10.2.1\bits\vector.tcc **** 	    this->_M_impl._M_end_of_storage = this->_M_impl._M_finish;
 319:c:\tools\gcc-arm-none-eabi-10-2020-q4-major\arm-none-eabi\include\c++\10.2.1\bits\vector.tcc **** 	  }
 320:c:\tools\gcc-arm-none-eabi-10-2020-q4-major\arm-none-eabi\include\c++\10.2.1\bits\vector.tcc **** 	else if (size() >= __len)
 321:c:\tools\gcc-arm-none-eabi-10-2020-q4-major\arm-none-eabi\include\c++\10.2.1\bits\vector.tcc **** 	  _M_erase_at_end(std::copy(__first, __last, this->_M_impl._M_start));
 322:c:\tools\gcc-arm-none-eabi-10-2020-q4-major\arm-none-eabi\include\c++\10.2.1\bits\vector.tcc **** 	else
 323:c:\tools\gcc-arm-none-eabi-10-2020-q4-major\arm-none-eabi\include\c++\10.2.1\bits\vector.tcc **** 	  {
 324:c:\tools\gcc-arm-none-eabi-10-2020-q4-major\arm-none-eabi\include\c++\10.2.1\bits\vector.tcc **** 	    _ForwardIterator __mid = __first;
 325:c:\tools\gcc-arm-none-eabi-10-2020-q4-major\arm-none-eabi\include\c++\10.2.1\bits\vector.tcc **** 	    std::advance(__mid, size());
 326:c:\tools\gcc-arm-none-eabi-10-2020-q4-major\arm-none-eabi\include\c++\10.2.1\bits\vector.tcc **** 	    std::copy(__first, __mid, this->_M_impl._M_start);
 327:c:\tools\gcc-arm-none-eabi-10-2020-q4-major\arm-none-eabi\include\c++\10.2.1\bits\vector.tcc **** 	    const size_type __attribute__((__unused__)) __n = __len - size();
 328:c:\tools\gcc-arm-none-eabi-10-2020-q4-major\arm-none-eabi\include\c++\10.2.1\bits\vector.tcc **** 	    _GLIBCXX_ASAN_ANNOTATE_GROW(__n);
 329:c:\tools\gcc-arm-none-eabi-10-2020-q4-major\arm-none-eabi\include\c++\10.2.1\bits\vector.tcc **** 	    this->_M_impl._M_finish =
 330:c:\tools\gcc-arm-none-eabi-10-2020-q4-major\arm-none-eabi\include\c++\10.2.1\bits\vector.tcc **** 	      std::__uninitialized_copy_a(__mid, __last,
 331:c:\tools\gcc-arm-none-eabi-10-2020-q4-major\arm-none-eabi\include\c++\10.2.1\bits\vector.tcc **** 					  this->_M_impl._M_finish,
 332:c:\tools\gcc-arm-none-eabi-10-2020-q4-major\arm-none-eabi\include\c++\10.2.1\bits\vector.tcc **** 					  _M_get_Tp_allocator());
 333:c:\tools\gcc-arm-none-eabi-10-2020-q4-major\arm-none-eabi\include\c++\10.2.1\bits\vector.tcc **** 	    _GLIBCXX_ASAN_ANNOTATE_GREW(__n);
 334:c:\tools\gcc-arm-none-eabi-10-2020-q4-major\arm-none-eabi\include\c++\10.2.1\bits\vector.tcc **** 	  }
 335:c:\tools\gcc-arm-none-eabi-10-2020-q4-major\arm-none-eabi\include\c++\10.2.1\bits\vector.tcc ****       }
 336:c:\tools\gcc-arm-none-eabi-10-2020-q4-major\arm-none-eabi\include\c++\10.2.1\bits\vector.tcc **** 
 337:c:\tools\gcc-arm-none-eabi-10-2020-q4-major\arm-none-eabi\include\c++\10.2.1\bits\vector.tcc **** #if __cplusplus >= 201103L
 338:c:\tools\gcc-arm-none-eabi-10-2020-q4-major\arm-none-eabi\include\c++\10.2.1\bits\vector.tcc ****   template<typename _Tp, typename _Alloc>
 339:c:\tools\gcc-arm-none-eabi-10-2020-q4-major\arm-none-eabi\include\c++\10.2.1\bits\vector.tcc ****     auto
 340:c:\tools\gcc-arm-none-eabi-10-2020-q4-major\arm-none-eabi\include\c++\10.2.1\bits\vector.tcc ****     vector<_Tp, _Alloc>::
 341:c:\tools\gcc-arm-none-eabi-10-2020-q4-major\arm-none-eabi\include\c++\10.2.1\bits\vector.tcc ****     _M_insert_rval(const_iterator __position, value_type&& __v) -> iterator
 342:c:\tools\gcc-arm-none-eabi-10-2020-q4-major\arm-none-eabi\include\c++\10.2.1\bits\vector.tcc ****     {
 343:c:\tools\gcc-arm-none-eabi-10-2020-q4-major\arm-none-eabi\include\c++\10.2.1\bits\vector.tcc ****       const auto __n = __position - cbegin();
 344:c:\tools\gcc-arm-none-eabi-10-2020-q4-major\arm-none-eabi\include\c++\10.2.1\bits\vector.tcc ****       if (this->_M_impl._M_finish != this->_M_impl._M_end_of_storage)
 345:c:\tools\gcc-arm-none-eabi-10-2020-q4-major\arm-none-eabi\include\c++\10.2.1\bits\vector.tcc **** 	if (__position == cend())
 346:c:\tools\gcc-arm-none-eabi-10-2020-q4-major\arm-none-eabi\include\c++\10.2.1\bits\vector.tcc **** 	  {
 347:c:\tools\gcc-arm-none-eabi-10-2020-q4-major\arm-none-eabi\include\c++\10.2.1\bits\vector.tcc **** 	    _GLIBCXX_ASAN_ANNOTATE_GROW(1);
 348:c:\tools\gcc-arm-none-eabi-10-2020-q4-major\arm-none-eabi\include\c++\10.2.1\bits\vector.tcc **** 	    _Alloc_traits::construct(this->_M_impl, this->_M_impl._M_finish,
 349:c:\tools\gcc-arm-none-eabi-10-2020-q4-major\arm-none-eabi\include\c++\10.2.1\bits\vector.tcc **** 				     std::move(__v));
 350:c:\tools\gcc-arm-none-eabi-10-2020-q4-major\arm-none-eabi\include\c++\10.2.1\bits\vector.tcc **** 	    ++this->_M_impl._M_finish;
 351:c:\tools\gcc-arm-none-eabi-10-2020-q4-major\arm-none-eabi\include\c++\10.2.1\bits\vector.tcc **** 	    _GLIBCXX_ASAN_ANNOTATE_GREW(1);
 352:c:\tools\gcc-arm-none-eabi-10-2020-q4-major\arm-none-eabi\include\c++\10.2.1\bits\vector.tcc **** 	  }
 353:c:\tools\gcc-arm-none-eabi-10-2020-q4-major\arm-none-eabi\include\c++\10.2.1\bits\vector.tcc **** 	else
 354:c:\tools\gcc-arm-none-eabi-10-2020-q4-major\arm-none-eabi\include\c++\10.2.1\bits\vector.tcc **** 	  _M_insert_aux(begin() + __n, std::move(__v));
 355:c:\tools\gcc-arm-none-eabi-10-2020-q4-major\arm-none-eabi\include\c++\10.2.1\bits\vector.tcc ****       else
 356:c:\tools\gcc-arm-none-eabi-10-2020-q4-major\arm-none-eabi\include\c++\10.2.1\bits\vector.tcc **** 	_M_realloc_insert(begin() + __n, std::move(__v));
 357:c:\tools\gcc-arm-none-eabi-10-2020-q4-major\arm-none-eabi\include\c++\10.2.1\bits\vector.tcc **** 
 358:c:\tools\gcc-arm-none-eabi-10-2020-q4-major\arm-none-eabi\include\c++\10.2.1\bits\vector.tcc ****       return iterator(this->_M_impl._M_start + __n);
 359:c:\tools\gcc-arm-none-eabi-10-2020-q4-major\arm-none-eabi\include\c++\10.2.1\bits\vector.tcc ****     }
 360:c:\tools\gcc-arm-none-eabi-10-2020-q4-major\arm-none-eabi\include\c++\10.2.1\bits\vector.tcc **** 
 361:c:\tools\gcc-arm-none-eabi-10-2020-q4-major\arm-none-eabi\include\c++\10.2.1\bits\vector.tcc ****   template<typename _Tp, typename _Alloc>
 362:c:\tools\gcc-arm-none-eabi-10-2020-q4-major\arm-none-eabi\include\c++\10.2.1\bits\vector.tcc ****     template<typename... _Args>
 363:c:\tools\gcc-arm-none-eabi-10-2020-q4-major\arm-none-eabi\include\c++\10.2.1\bits\vector.tcc ****       auto
 364:c:\tools\gcc-arm-none-eabi-10-2020-q4-major\arm-none-eabi\include\c++\10.2.1\bits\vector.tcc ****       vector<_Tp, _Alloc>::
 365:c:\tools\gcc-arm-none-eabi-10-2020-q4-major\arm-none-eabi\include\c++\10.2.1\bits\vector.tcc ****       _M_emplace_aux(const_iterator __position, _Args&&... __args)
 366:c:\tools\gcc-arm-none-eabi-10-2020-q4-major\arm-none-eabi\include\c++\10.2.1\bits\vector.tcc ****       -> iterator
ARM GAS  C:\Users\saite\AppData\Local\Temp\ccxfQYnf.s 			page 19


 367:c:\tools\gcc-arm-none-eabi-10-2020-q4-major\arm-none-eabi\include\c++\10.2.1\bits\vector.tcc ****       {
 368:c:\tools\gcc-arm-none-eabi-10-2020-q4-major\arm-none-eabi\include\c++\10.2.1\bits\vector.tcc **** 	const auto __n = __position - cbegin();
 369:c:\tools\gcc-arm-none-eabi-10-2020-q4-major\arm-none-eabi\include\c++\10.2.1\bits\vector.tcc **** 	if (this->_M_impl._M_finish != this->_M_impl._M_end_of_storage)
 370:c:\tools\gcc-arm-none-eabi-10-2020-q4-major\arm-none-eabi\include\c++\10.2.1\bits\vector.tcc **** 	  if (__position == cend())
 371:c:\tools\gcc-arm-none-eabi-10-2020-q4-major\arm-none-eabi\include\c++\10.2.1\bits\vector.tcc **** 	    {
 372:c:\tools\gcc-arm-none-eabi-10-2020-q4-major\arm-none-eabi\include\c++\10.2.1\bits\vector.tcc **** 	      _GLIBCXX_ASAN_ANNOTATE_GROW(1);
 373:c:\tools\gcc-arm-none-eabi-10-2020-q4-major\arm-none-eabi\include\c++\10.2.1\bits\vector.tcc **** 	      _Alloc_traits::construct(this->_M_impl, this->_M_impl._M_finish,
 374:c:\tools\gcc-arm-none-eabi-10-2020-q4-major\arm-none-eabi\include\c++\10.2.1\bits\vector.tcc **** 				       std::forward<_Args>(__args)...);
 375:c:\tools\gcc-arm-none-eabi-10-2020-q4-major\arm-none-eabi\include\c++\10.2.1\bits\vector.tcc **** 	      ++this->_M_impl._M_finish;
 376:c:\tools\gcc-arm-none-eabi-10-2020-q4-major\arm-none-eabi\include\c++\10.2.1\bits\vector.tcc **** 	      _GLIBCXX_ASAN_ANNOTATE_GREW(1);
 377:c:\tools\gcc-arm-none-eabi-10-2020-q4-major\arm-none-eabi\include\c++\10.2.1\bits\vector.tcc **** 	    }
 378:c:\tools\gcc-arm-none-eabi-10-2020-q4-major\arm-none-eabi\include\c++\10.2.1\bits\vector.tcc **** 	  else
 379:c:\tools\gcc-arm-none-eabi-10-2020-q4-major\arm-none-eabi\include\c++\10.2.1\bits\vector.tcc **** 	    {
 380:c:\tools\gcc-arm-none-eabi-10-2020-q4-major\arm-none-eabi\include\c++\10.2.1\bits\vector.tcc **** 	      // We need to construct a temporary because something in __args...
 381:c:\tools\gcc-arm-none-eabi-10-2020-q4-major\arm-none-eabi\include\c++\10.2.1\bits\vector.tcc **** 	      // could alias one of the elements of the container and so we
 382:c:\tools\gcc-arm-none-eabi-10-2020-q4-major\arm-none-eabi\include\c++\10.2.1\bits\vector.tcc **** 	      // need to use it before _M_insert_aux moves elements around.
 383:c:\tools\gcc-arm-none-eabi-10-2020-q4-major\arm-none-eabi\include\c++\10.2.1\bits\vector.tcc **** 	      _Temporary_value __tmp(this, std::forward<_Args>(__args)...);
 384:c:\tools\gcc-arm-none-eabi-10-2020-q4-major\arm-none-eabi\include\c++\10.2.1\bits\vector.tcc **** 	      _M_insert_aux(begin() + __n, std::move(__tmp._M_val()));
 385:c:\tools\gcc-arm-none-eabi-10-2020-q4-major\arm-none-eabi\include\c++\10.2.1\bits\vector.tcc **** 	    }
 386:c:\tools\gcc-arm-none-eabi-10-2020-q4-major\arm-none-eabi\include\c++\10.2.1\bits\vector.tcc **** 	else
 387:c:\tools\gcc-arm-none-eabi-10-2020-q4-major\arm-none-eabi\include\c++\10.2.1\bits\vector.tcc **** 	  _M_realloc_insert(begin() + __n, std::forward<_Args>(__args)...);
 388:c:\tools\gcc-arm-none-eabi-10-2020-q4-major\arm-none-eabi\include\c++\10.2.1\bits\vector.tcc **** 
 389:c:\tools\gcc-arm-none-eabi-10-2020-q4-major\arm-none-eabi\include\c++\10.2.1\bits\vector.tcc **** 	return iterator(this->_M_impl._M_start + __n);
 390:c:\tools\gcc-arm-none-eabi-10-2020-q4-major\arm-none-eabi\include\c++\10.2.1\bits\vector.tcc ****       }
 391:c:\tools\gcc-arm-none-eabi-10-2020-q4-major\arm-none-eabi\include\c++\10.2.1\bits\vector.tcc **** 
 392:c:\tools\gcc-arm-none-eabi-10-2020-q4-major\arm-none-eabi\include\c++\10.2.1\bits\vector.tcc ****   template<typename _Tp, typename _Alloc>
 393:c:\tools\gcc-arm-none-eabi-10-2020-q4-major\arm-none-eabi\include\c++\10.2.1\bits\vector.tcc ****     template<typename _Arg>
 394:c:\tools\gcc-arm-none-eabi-10-2020-q4-major\arm-none-eabi\include\c++\10.2.1\bits\vector.tcc ****       void
 395:c:\tools\gcc-arm-none-eabi-10-2020-q4-major\arm-none-eabi\include\c++\10.2.1\bits\vector.tcc ****       vector<_Tp, _Alloc>::
 396:c:\tools\gcc-arm-none-eabi-10-2020-q4-major\arm-none-eabi\include\c++\10.2.1\bits\vector.tcc ****       _M_insert_aux(iterator __position, _Arg&& __arg)
 397:c:\tools\gcc-arm-none-eabi-10-2020-q4-major\arm-none-eabi\include\c++\10.2.1\bits\vector.tcc **** #else
 398:c:\tools\gcc-arm-none-eabi-10-2020-q4-major\arm-none-eabi\include\c++\10.2.1\bits\vector.tcc ****   template<typename _Tp, typename _Alloc>
 399:c:\tools\gcc-arm-none-eabi-10-2020-q4-major\arm-none-eabi\include\c++\10.2.1\bits\vector.tcc ****     void
 400:c:\tools\gcc-arm-none-eabi-10-2020-q4-major\arm-none-eabi\include\c++\10.2.1\bits\vector.tcc ****     vector<_Tp, _Alloc>::
 401:c:\tools\gcc-arm-none-eabi-10-2020-q4-major\arm-none-eabi\include\c++\10.2.1\bits\vector.tcc ****     _M_insert_aux(iterator __position, const _Tp& __x)
 402:c:\tools\gcc-arm-none-eabi-10-2020-q4-major\arm-none-eabi\include\c++\10.2.1\bits\vector.tcc **** #endif
 403:c:\tools\gcc-arm-none-eabi-10-2020-q4-major\arm-none-eabi\include\c++\10.2.1\bits\vector.tcc ****     {
 404:c:\tools\gcc-arm-none-eabi-10-2020-q4-major\arm-none-eabi\include\c++\10.2.1\bits\vector.tcc ****       _GLIBCXX_ASAN_ANNOTATE_GROW(1);
 405:c:\tools\gcc-arm-none-eabi-10-2020-q4-major\arm-none-eabi\include\c++\10.2.1\bits\vector.tcc ****       _Alloc_traits::construct(this->_M_impl, this->_M_impl._M_finish,
 406:c:\tools\gcc-arm-none-eabi-10-2020-q4-major\arm-none-eabi\include\c++\10.2.1\bits\vector.tcc **** 			       _GLIBCXX_MOVE(*(this->_M_impl._M_finish - 1)));
 407:c:\tools\gcc-arm-none-eabi-10-2020-q4-major\arm-none-eabi\include\c++\10.2.1\bits\vector.tcc ****       ++this->_M_impl._M_finish;
 408:c:\tools\gcc-arm-none-eabi-10-2020-q4-major\arm-none-eabi\include\c++\10.2.1\bits\vector.tcc ****       _GLIBCXX_ASAN_ANNOTATE_GREW(1);
 409:c:\tools\gcc-arm-none-eabi-10-2020-q4-major\arm-none-eabi\include\c++\10.2.1\bits\vector.tcc **** #if __cplusplus < 201103L
 410:c:\tools\gcc-arm-none-eabi-10-2020-q4-major\arm-none-eabi\include\c++\10.2.1\bits\vector.tcc ****       _Tp __x_copy = __x;
 411:c:\tools\gcc-arm-none-eabi-10-2020-q4-major\arm-none-eabi\include\c++\10.2.1\bits\vector.tcc **** #endif
 412:c:\tools\gcc-arm-none-eabi-10-2020-q4-major\arm-none-eabi\include\c++\10.2.1\bits\vector.tcc ****       _GLIBCXX_MOVE_BACKWARD3(__position.base(),
 413:c:\tools\gcc-arm-none-eabi-10-2020-q4-major\arm-none-eabi\include\c++\10.2.1\bits\vector.tcc **** 			      this->_M_impl._M_finish - 2,
 414:c:\tools\gcc-arm-none-eabi-10-2020-q4-major\arm-none-eabi\include\c++\10.2.1\bits\vector.tcc **** 			      this->_M_impl._M_finish - 1);
 415:c:\tools\gcc-arm-none-eabi-10-2020-q4-major\arm-none-eabi\include\c++\10.2.1\bits\vector.tcc **** #if __cplusplus < 201103L
 416:c:\tools\gcc-arm-none-eabi-10-2020-q4-major\arm-none-eabi\include\c++\10.2.1\bits\vector.tcc ****       *__position = __x_copy;
 417:c:\tools\gcc-arm-none-eabi-10-2020-q4-major\arm-none-eabi\include\c++\10.2.1\bits\vector.tcc **** #else
 418:c:\tools\gcc-arm-none-eabi-10-2020-q4-major\arm-none-eabi\include\c++\10.2.1\bits\vector.tcc ****       *__position = std::forward<_Arg>(__arg);
 419:c:\tools\gcc-arm-none-eabi-10-2020-q4-major\arm-none-eabi\include\c++\10.2.1\bits\vector.tcc **** #endif
 420:c:\tools\gcc-arm-none-eabi-10-2020-q4-major\arm-none-eabi\include\c++\10.2.1\bits\vector.tcc ****     }
 421:c:\tools\gcc-arm-none-eabi-10-2020-q4-major\arm-none-eabi\include\c++\10.2.1\bits\vector.tcc **** 
 422:c:\tools\gcc-arm-none-eabi-10-2020-q4-major\arm-none-eabi\include\c++\10.2.1\bits\vector.tcc **** #if __cplusplus >= 201103L
 423:c:\tools\gcc-arm-none-eabi-10-2020-q4-major\arm-none-eabi\include\c++\10.2.1\bits\vector.tcc ****   template<typename _Tp, typename _Alloc>
ARM GAS  C:\Users\saite\AppData\Local\Temp\ccxfQYnf.s 			page 20


 424:c:\tools\gcc-arm-none-eabi-10-2020-q4-major\arm-none-eabi\include\c++\10.2.1\bits\vector.tcc ****     template<typename... _Args>
 425:c:\tools\gcc-arm-none-eabi-10-2020-q4-major\arm-none-eabi\include\c++\10.2.1\bits\vector.tcc ****       void
 426:c:\tools\gcc-arm-none-eabi-10-2020-q4-major\arm-none-eabi\include\c++\10.2.1\bits\vector.tcc ****       vector<_Tp, _Alloc>::
 293              		.loc 3 426 7 is_stmt 1 view -0
 294              		.cfi_startproc
 295              		@ args = 0, pretend = 0, frame = 8
 296              		@ frame_needed = 0, uses_anonymous_args = 0
 297              		.loc 3 426 7 is_stmt 0 view .LVU70
 298 0000 2DE9F04F 		push	{r4, r5, r6, r7, r8, r9, r10, fp, lr}
 299              		.save {r4, r5, r6, r7, r8, r9, r10, fp, lr}
 300              	.LCFI5:
 301              		.cfi_def_cfa_offset 36
 302              		.cfi_offset 4, -36
 303              		.cfi_offset 5, -32
 304              		.cfi_offset 6, -28
 305              		.cfi_offset 7, -24
 306              		.cfi_offset 8, -20
 307              		.cfi_offset 9, -16
 308              		.cfi_offset 10, -12
 309              		.cfi_offset 11, -8
 310              		.cfi_offset 14, -4
 311              		.pad #12
 312 0004 83B0     		sub	sp, sp, #12
 313              	.LCFI6:
 314              		.cfi_def_cfa_offset 48
 315 0006 8846     		mov	r8, r1
 316              	.LVL11:
 317              		.loc 3 426 7 view .LVU71
 318 0008 1646     		mov	r6, r2
 319              	.LVL12:
 320              		.loc 3 426 7 view .LVU72
 321 000a 0123     		movs	r3, #1
 322 000c 0093     		str	r3, [sp]
 323              	.LVL13:
 324              	.LBB324:
 325              	.LBI324:
 326              		.file 4 "c:\\tools\\gcc-arm-none-eabi-10-2020-q4-major\\arm-none-eabi\\include\\c++\\10.2.1\\bits\
   1:c:\tools\gcc-arm-none-eabi-10-2020-q4-major\arm-none-eabi\include\c++\10.2.1\bits\stl_vector.h **** // Vector implementation -*- C++ -*-
   2:c:\tools\gcc-arm-none-eabi-10-2020-q4-major\arm-none-eabi\include\c++\10.2.1\bits\stl_vector.h **** 
   3:c:\tools\gcc-arm-none-eabi-10-2020-q4-major\arm-none-eabi\include\c++\10.2.1\bits\stl_vector.h **** // Copyright (C) 2001-2020 Free Software Foundation, Inc.
   4:c:\tools\gcc-arm-none-eabi-10-2020-q4-major\arm-none-eabi\include\c++\10.2.1\bits\stl_vector.h **** //
   5:c:\tools\gcc-arm-none-eabi-10-2020-q4-major\arm-none-eabi\include\c++\10.2.1\bits\stl_vector.h **** // This file is part of the GNU ISO C++ Library.  This library is free
   6:c:\tools\gcc-arm-none-eabi-10-2020-q4-major\arm-none-eabi\include\c++\10.2.1\bits\stl_vector.h **** // software; you can redistribute it and/or modify it under the
   7:c:\tools\gcc-arm-none-eabi-10-2020-q4-major\arm-none-eabi\include\c++\10.2.1\bits\stl_vector.h **** // terms of the GNU General Public License as published by the
   8:c:\tools\gcc-arm-none-eabi-10-2020-q4-major\arm-none-eabi\include\c++\10.2.1\bits\stl_vector.h **** // Free Software Foundation; either version 3, or (at your option)
   9:c:\tools\gcc-arm-none-eabi-10-2020-q4-major\arm-none-eabi\include\c++\10.2.1\bits\stl_vector.h **** // any later version.
  10:c:\tools\gcc-arm-none-eabi-10-2020-q4-major\arm-none-eabi\include\c++\10.2.1\bits\stl_vector.h **** 
  11:c:\tools\gcc-arm-none-eabi-10-2020-q4-major\arm-none-eabi\include\c++\10.2.1\bits\stl_vector.h **** // This library is distributed in the hope that it will be useful,
  12:c:\tools\gcc-arm-none-eabi-10-2020-q4-major\arm-none-eabi\include\c++\10.2.1\bits\stl_vector.h **** // but WITHOUT ANY WARRANTY; without even the implied warranty of
  13:c:\tools\gcc-arm-none-eabi-10-2020-q4-major\arm-none-eabi\include\c++\10.2.1\bits\stl_vector.h **** // MERCHANTABILITY or FITNESS FOR A PARTICULAR PURPOSE.  See the
  14:c:\tools\gcc-arm-none-eabi-10-2020-q4-major\arm-none-eabi\include\c++\10.2.1\bits\stl_vector.h **** // GNU General Public License for more details.
  15:c:\tools\gcc-arm-none-eabi-10-2020-q4-major\arm-none-eabi\include\c++\10.2.1\bits\stl_vector.h **** 
  16:c:\tools\gcc-arm-none-eabi-10-2020-q4-major\arm-none-eabi\include\c++\10.2.1\bits\stl_vector.h **** // Under Section 7 of GPL version 3, you are granted additional
  17:c:\tools\gcc-arm-none-eabi-10-2020-q4-major\arm-none-eabi\include\c++\10.2.1\bits\stl_vector.h **** // permissions described in the GCC Runtime Library Exception, version
  18:c:\tools\gcc-arm-none-eabi-10-2020-q4-major\arm-none-eabi\include\c++\10.2.1\bits\stl_vector.h **** // 3.1, as published by the Free Software Foundation.
  19:c:\tools\gcc-arm-none-eabi-10-2020-q4-major\arm-none-eabi\include\c++\10.2.1\bits\stl_vector.h **** 
  20:c:\tools\gcc-arm-none-eabi-10-2020-q4-major\arm-none-eabi\include\c++\10.2.1\bits\stl_vector.h **** // You should have received a copy of the GNU General Public License and
ARM GAS  C:\Users\saite\AppData\Local\Temp\ccxfQYnf.s 			page 21


  21:c:\tools\gcc-arm-none-eabi-10-2020-q4-major\arm-none-eabi\include\c++\10.2.1\bits\stl_vector.h **** // a copy of the GCC Runtime Library Exception along with this program;
  22:c:\tools\gcc-arm-none-eabi-10-2020-q4-major\arm-none-eabi\include\c++\10.2.1\bits\stl_vector.h **** // see the files COPYING3 and COPYING.RUNTIME respectively.  If not, see
  23:c:\tools\gcc-arm-none-eabi-10-2020-q4-major\arm-none-eabi\include\c++\10.2.1\bits\stl_vector.h **** // <http://www.gnu.org/licenses/>.
  24:c:\tools\gcc-arm-none-eabi-10-2020-q4-major\arm-none-eabi\include\c++\10.2.1\bits\stl_vector.h **** 
  25:c:\tools\gcc-arm-none-eabi-10-2020-q4-major\arm-none-eabi\include\c++\10.2.1\bits\stl_vector.h **** /*
  26:c:\tools\gcc-arm-none-eabi-10-2020-q4-major\arm-none-eabi\include\c++\10.2.1\bits\stl_vector.h ****  *
  27:c:\tools\gcc-arm-none-eabi-10-2020-q4-major\arm-none-eabi\include\c++\10.2.1\bits\stl_vector.h ****  * Copyright (c) 1994
  28:c:\tools\gcc-arm-none-eabi-10-2020-q4-major\arm-none-eabi\include\c++\10.2.1\bits\stl_vector.h ****  * Hewlett-Packard Company
  29:c:\tools\gcc-arm-none-eabi-10-2020-q4-major\arm-none-eabi\include\c++\10.2.1\bits\stl_vector.h ****  *
  30:c:\tools\gcc-arm-none-eabi-10-2020-q4-major\arm-none-eabi\include\c++\10.2.1\bits\stl_vector.h ****  * Permission to use, copy, modify, distribute and sell this software
  31:c:\tools\gcc-arm-none-eabi-10-2020-q4-major\arm-none-eabi\include\c++\10.2.1\bits\stl_vector.h ****  * and its documentation for any purpose is hereby granted without fee,
  32:c:\tools\gcc-arm-none-eabi-10-2020-q4-major\arm-none-eabi\include\c++\10.2.1\bits\stl_vector.h ****  * provided that the above copyright notice appear in all copies and
  33:c:\tools\gcc-arm-none-eabi-10-2020-q4-major\arm-none-eabi\include\c++\10.2.1\bits\stl_vector.h ****  * that both that copyright notice and this permission notice appear
  34:c:\tools\gcc-arm-none-eabi-10-2020-q4-major\arm-none-eabi\include\c++\10.2.1\bits\stl_vector.h ****  * in supporting documentation.  Hewlett-Packard Company makes no
  35:c:\tools\gcc-arm-none-eabi-10-2020-q4-major\arm-none-eabi\include\c++\10.2.1\bits\stl_vector.h ****  * representations about the suitability of this software for any
  36:c:\tools\gcc-arm-none-eabi-10-2020-q4-major\arm-none-eabi\include\c++\10.2.1\bits\stl_vector.h ****  * purpose.  It is provided "as is" without express or implied warranty.
  37:c:\tools\gcc-arm-none-eabi-10-2020-q4-major\arm-none-eabi\include\c++\10.2.1\bits\stl_vector.h ****  *
  38:c:\tools\gcc-arm-none-eabi-10-2020-q4-major\arm-none-eabi\include\c++\10.2.1\bits\stl_vector.h ****  *
  39:c:\tools\gcc-arm-none-eabi-10-2020-q4-major\arm-none-eabi\include\c++\10.2.1\bits\stl_vector.h ****  * Copyright (c) 1996
  40:c:\tools\gcc-arm-none-eabi-10-2020-q4-major\arm-none-eabi\include\c++\10.2.1\bits\stl_vector.h ****  * Silicon Graphics Computer Systems, Inc.
  41:c:\tools\gcc-arm-none-eabi-10-2020-q4-major\arm-none-eabi\include\c++\10.2.1\bits\stl_vector.h ****  *
  42:c:\tools\gcc-arm-none-eabi-10-2020-q4-major\arm-none-eabi\include\c++\10.2.1\bits\stl_vector.h ****  * Permission to use, copy, modify, distribute and sell this software
  43:c:\tools\gcc-arm-none-eabi-10-2020-q4-major\arm-none-eabi\include\c++\10.2.1\bits\stl_vector.h ****  * and its documentation for any purpose is hereby granted without fee,
  44:c:\tools\gcc-arm-none-eabi-10-2020-q4-major\arm-none-eabi\include\c++\10.2.1\bits\stl_vector.h ****  * provided that the above copyright notice appear in all copies and
  45:c:\tools\gcc-arm-none-eabi-10-2020-q4-major\arm-none-eabi\include\c++\10.2.1\bits\stl_vector.h ****  * that both that copyright notice and this permission notice appear
  46:c:\tools\gcc-arm-none-eabi-10-2020-q4-major\arm-none-eabi\include\c++\10.2.1\bits\stl_vector.h ****  * in supporting documentation.  Silicon Graphics makes no
  47:c:\tools\gcc-arm-none-eabi-10-2020-q4-major\arm-none-eabi\include\c++\10.2.1\bits\stl_vector.h ****  * representations about the suitability of this  software for any
  48:c:\tools\gcc-arm-none-eabi-10-2020-q4-major\arm-none-eabi\include\c++\10.2.1\bits\stl_vector.h ****  * purpose.  It is provided "as is" without express or implied warranty.
  49:c:\tools\gcc-arm-none-eabi-10-2020-q4-major\arm-none-eabi\include\c++\10.2.1\bits\stl_vector.h ****  */
  50:c:\tools\gcc-arm-none-eabi-10-2020-q4-major\arm-none-eabi\include\c++\10.2.1\bits\stl_vector.h **** 
  51:c:\tools\gcc-arm-none-eabi-10-2020-q4-major\arm-none-eabi\include\c++\10.2.1\bits\stl_vector.h **** /** @file bits/stl_vector.h
  52:c:\tools\gcc-arm-none-eabi-10-2020-q4-major\arm-none-eabi\include\c++\10.2.1\bits\stl_vector.h ****  *  This is an internal header file, included by other library headers.
  53:c:\tools\gcc-arm-none-eabi-10-2020-q4-major\arm-none-eabi\include\c++\10.2.1\bits\stl_vector.h ****  *  Do not attempt to use it directly. @headername{vector}
  54:c:\tools\gcc-arm-none-eabi-10-2020-q4-major\arm-none-eabi\include\c++\10.2.1\bits\stl_vector.h ****  */
  55:c:\tools\gcc-arm-none-eabi-10-2020-q4-major\arm-none-eabi\include\c++\10.2.1\bits\stl_vector.h **** 
  56:c:\tools\gcc-arm-none-eabi-10-2020-q4-major\arm-none-eabi\include\c++\10.2.1\bits\stl_vector.h **** #ifndef _STL_VECTOR_H
  57:c:\tools\gcc-arm-none-eabi-10-2020-q4-major\arm-none-eabi\include\c++\10.2.1\bits\stl_vector.h **** #define _STL_VECTOR_H 1
  58:c:\tools\gcc-arm-none-eabi-10-2020-q4-major\arm-none-eabi\include\c++\10.2.1\bits\stl_vector.h **** 
  59:c:\tools\gcc-arm-none-eabi-10-2020-q4-major\arm-none-eabi\include\c++\10.2.1\bits\stl_vector.h **** #include <bits/stl_iterator_base_funcs.h>
  60:c:\tools\gcc-arm-none-eabi-10-2020-q4-major\arm-none-eabi\include\c++\10.2.1\bits\stl_vector.h **** #include <bits/functexcept.h>
  61:c:\tools\gcc-arm-none-eabi-10-2020-q4-major\arm-none-eabi\include\c++\10.2.1\bits\stl_vector.h **** #include <bits/concept_check.h>
  62:c:\tools\gcc-arm-none-eabi-10-2020-q4-major\arm-none-eabi\include\c++\10.2.1\bits\stl_vector.h **** #if __cplusplus >= 201103L
  63:c:\tools\gcc-arm-none-eabi-10-2020-q4-major\arm-none-eabi\include\c++\10.2.1\bits\stl_vector.h **** #include <initializer_list>
  64:c:\tools\gcc-arm-none-eabi-10-2020-q4-major\arm-none-eabi\include\c++\10.2.1\bits\stl_vector.h **** #endif
  65:c:\tools\gcc-arm-none-eabi-10-2020-q4-major\arm-none-eabi\include\c++\10.2.1\bits\stl_vector.h **** #if __cplusplus > 201703L
  66:c:\tools\gcc-arm-none-eabi-10-2020-q4-major\arm-none-eabi\include\c++\10.2.1\bits\stl_vector.h **** # include <compare>
  67:c:\tools\gcc-arm-none-eabi-10-2020-q4-major\arm-none-eabi\include\c++\10.2.1\bits\stl_vector.h **** #endif
  68:c:\tools\gcc-arm-none-eabi-10-2020-q4-major\arm-none-eabi\include\c++\10.2.1\bits\stl_vector.h **** 
  69:c:\tools\gcc-arm-none-eabi-10-2020-q4-major\arm-none-eabi\include\c++\10.2.1\bits\stl_vector.h **** #include <debug/assertions.h>
  70:c:\tools\gcc-arm-none-eabi-10-2020-q4-major\arm-none-eabi\include\c++\10.2.1\bits\stl_vector.h **** 
  71:c:\tools\gcc-arm-none-eabi-10-2020-q4-major\arm-none-eabi\include\c++\10.2.1\bits\stl_vector.h **** #if _GLIBCXX_SANITIZE_STD_ALLOCATOR && _GLIBCXX_SANITIZE_VECTOR
  72:c:\tools\gcc-arm-none-eabi-10-2020-q4-major\arm-none-eabi\include\c++\10.2.1\bits\stl_vector.h **** extern "C" void
  73:c:\tools\gcc-arm-none-eabi-10-2020-q4-major\arm-none-eabi\include\c++\10.2.1\bits\stl_vector.h **** __sanitizer_annotate_contiguous_container(const void*, const void*,
  74:c:\tools\gcc-arm-none-eabi-10-2020-q4-major\arm-none-eabi\include\c++\10.2.1\bits\stl_vector.h **** 					  const void*, const void*);
  75:c:\tools\gcc-arm-none-eabi-10-2020-q4-major\arm-none-eabi\include\c++\10.2.1\bits\stl_vector.h **** #endif
  76:c:\tools\gcc-arm-none-eabi-10-2020-q4-major\arm-none-eabi\include\c++\10.2.1\bits\stl_vector.h **** 
  77:c:\tools\gcc-arm-none-eabi-10-2020-q4-major\arm-none-eabi\include\c++\10.2.1\bits\stl_vector.h **** namespace std _GLIBCXX_VISIBILITY(default)
ARM GAS  C:\Users\saite\AppData\Local\Temp\ccxfQYnf.s 			page 22


  78:c:\tools\gcc-arm-none-eabi-10-2020-q4-major\arm-none-eabi\include\c++\10.2.1\bits\stl_vector.h **** {
  79:c:\tools\gcc-arm-none-eabi-10-2020-q4-major\arm-none-eabi\include\c++\10.2.1\bits\stl_vector.h **** _GLIBCXX_BEGIN_NAMESPACE_VERSION
  80:c:\tools\gcc-arm-none-eabi-10-2020-q4-major\arm-none-eabi\include\c++\10.2.1\bits\stl_vector.h **** _GLIBCXX_BEGIN_NAMESPACE_CONTAINER
  81:c:\tools\gcc-arm-none-eabi-10-2020-q4-major\arm-none-eabi\include\c++\10.2.1\bits\stl_vector.h **** 
  82:c:\tools\gcc-arm-none-eabi-10-2020-q4-major\arm-none-eabi\include\c++\10.2.1\bits\stl_vector.h ****   /// See bits/stl_deque.h's _Deque_base for an explanation.
  83:c:\tools\gcc-arm-none-eabi-10-2020-q4-major\arm-none-eabi\include\c++\10.2.1\bits\stl_vector.h ****   template<typename _Tp, typename _Alloc>
  84:c:\tools\gcc-arm-none-eabi-10-2020-q4-major\arm-none-eabi\include\c++\10.2.1\bits\stl_vector.h ****     struct _Vector_base
  85:c:\tools\gcc-arm-none-eabi-10-2020-q4-major\arm-none-eabi\include\c++\10.2.1\bits\stl_vector.h ****     {
  86:c:\tools\gcc-arm-none-eabi-10-2020-q4-major\arm-none-eabi\include\c++\10.2.1\bits\stl_vector.h ****       typedef typename __gnu_cxx::__alloc_traits<_Alloc>::template
  87:c:\tools\gcc-arm-none-eabi-10-2020-q4-major\arm-none-eabi\include\c++\10.2.1\bits\stl_vector.h **** 	rebind<_Tp>::other _Tp_alloc_type;
  88:c:\tools\gcc-arm-none-eabi-10-2020-q4-major\arm-none-eabi\include\c++\10.2.1\bits\stl_vector.h ****       typedef typename __gnu_cxx::__alloc_traits<_Tp_alloc_type>::pointer
  89:c:\tools\gcc-arm-none-eabi-10-2020-q4-major\arm-none-eabi\include\c++\10.2.1\bits\stl_vector.h ****        	pointer;
  90:c:\tools\gcc-arm-none-eabi-10-2020-q4-major\arm-none-eabi\include\c++\10.2.1\bits\stl_vector.h **** 
  91:c:\tools\gcc-arm-none-eabi-10-2020-q4-major\arm-none-eabi\include\c++\10.2.1\bits\stl_vector.h ****       struct _Vector_impl_data
  92:c:\tools\gcc-arm-none-eabi-10-2020-q4-major\arm-none-eabi\include\c++\10.2.1\bits\stl_vector.h ****       {
  93:c:\tools\gcc-arm-none-eabi-10-2020-q4-major\arm-none-eabi\include\c++\10.2.1\bits\stl_vector.h **** 	pointer _M_start;
  94:c:\tools\gcc-arm-none-eabi-10-2020-q4-major\arm-none-eabi\include\c++\10.2.1\bits\stl_vector.h **** 	pointer _M_finish;
  95:c:\tools\gcc-arm-none-eabi-10-2020-q4-major\arm-none-eabi\include\c++\10.2.1\bits\stl_vector.h **** 	pointer _M_end_of_storage;
  96:c:\tools\gcc-arm-none-eabi-10-2020-q4-major\arm-none-eabi\include\c++\10.2.1\bits\stl_vector.h **** 
  97:c:\tools\gcc-arm-none-eabi-10-2020-q4-major\arm-none-eabi\include\c++\10.2.1\bits\stl_vector.h **** 	_Vector_impl_data() _GLIBCXX_NOEXCEPT
  98:c:\tools\gcc-arm-none-eabi-10-2020-q4-major\arm-none-eabi\include\c++\10.2.1\bits\stl_vector.h **** 	: _M_start(), _M_finish(), _M_end_of_storage()
  99:c:\tools\gcc-arm-none-eabi-10-2020-q4-major\arm-none-eabi\include\c++\10.2.1\bits\stl_vector.h **** 	{ }
 100:c:\tools\gcc-arm-none-eabi-10-2020-q4-major\arm-none-eabi\include\c++\10.2.1\bits\stl_vector.h **** 
 101:c:\tools\gcc-arm-none-eabi-10-2020-q4-major\arm-none-eabi\include\c++\10.2.1\bits\stl_vector.h **** #if __cplusplus >= 201103L
 102:c:\tools\gcc-arm-none-eabi-10-2020-q4-major\arm-none-eabi\include\c++\10.2.1\bits\stl_vector.h **** 	_Vector_impl_data(_Vector_impl_data&& __x) noexcept
 103:c:\tools\gcc-arm-none-eabi-10-2020-q4-major\arm-none-eabi\include\c++\10.2.1\bits\stl_vector.h **** 	: _M_start(__x._M_start), _M_finish(__x._M_finish),
 104:c:\tools\gcc-arm-none-eabi-10-2020-q4-major\arm-none-eabi\include\c++\10.2.1\bits\stl_vector.h **** 	  _M_end_of_storage(__x._M_end_of_storage)
 105:c:\tools\gcc-arm-none-eabi-10-2020-q4-major\arm-none-eabi\include\c++\10.2.1\bits\stl_vector.h **** 	{ __x._M_start = __x._M_finish = __x._M_end_of_storage = pointer(); }
 106:c:\tools\gcc-arm-none-eabi-10-2020-q4-major\arm-none-eabi\include\c++\10.2.1\bits\stl_vector.h **** #endif
 107:c:\tools\gcc-arm-none-eabi-10-2020-q4-major\arm-none-eabi\include\c++\10.2.1\bits\stl_vector.h **** 
 108:c:\tools\gcc-arm-none-eabi-10-2020-q4-major\arm-none-eabi\include\c++\10.2.1\bits\stl_vector.h **** 	void
 109:c:\tools\gcc-arm-none-eabi-10-2020-q4-major\arm-none-eabi\include\c++\10.2.1\bits\stl_vector.h **** 	_M_copy_data(_Vector_impl_data const& __x) _GLIBCXX_NOEXCEPT
 110:c:\tools\gcc-arm-none-eabi-10-2020-q4-major\arm-none-eabi\include\c++\10.2.1\bits\stl_vector.h **** 	{
 111:c:\tools\gcc-arm-none-eabi-10-2020-q4-major\arm-none-eabi\include\c++\10.2.1\bits\stl_vector.h **** 	  _M_start = __x._M_start;
 112:c:\tools\gcc-arm-none-eabi-10-2020-q4-major\arm-none-eabi\include\c++\10.2.1\bits\stl_vector.h **** 	  _M_finish = __x._M_finish;
 113:c:\tools\gcc-arm-none-eabi-10-2020-q4-major\arm-none-eabi\include\c++\10.2.1\bits\stl_vector.h **** 	  _M_end_of_storage = __x._M_end_of_storage;
 114:c:\tools\gcc-arm-none-eabi-10-2020-q4-major\arm-none-eabi\include\c++\10.2.1\bits\stl_vector.h **** 	}
 115:c:\tools\gcc-arm-none-eabi-10-2020-q4-major\arm-none-eabi\include\c++\10.2.1\bits\stl_vector.h **** 
 116:c:\tools\gcc-arm-none-eabi-10-2020-q4-major\arm-none-eabi\include\c++\10.2.1\bits\stl_vector.h **** 	void
 117:c:\tools\gcc-arm-none-eabi-10-2020-q4-major\arm-none-eabi\include\c++\10.2.1\bits\stl_vector.h **** 	_M_swap_data(_Vector_impl_data& __x) _GLIBCXX_NOEXCEPT
 118:c:\tools\gcc-arm-none-eabi-10-2020-q4-major\arm-none-eabi\include\c++\10.2.1\bits\stl_vector.h **** 	{
 119:c:\tools\gcc-arm-none-eabi-10-2020-q4-major\arm-none-eabi\include\c++\10.2.1\bits\stl_vector.h **** 	  // Do not use std::swap(_M_start, __x._M_start), etc as it loses
 120:c:\tools\gcc-arm-none-eabi-10-2020-q4-major\arm-none-eabi\include\c++\10.2.1\bits\stl_vector.h **** 	  // information used by TBAA.
 121:c:\tools\gcc-arm-none-eabi-10-2020-q4-major\arm-none-eabi\include\c++\10.2.1\bits\stl_vector.h **** 	  _Vector_impl_data __tmp;
 122:c:\tools\gcc-arm-none-eabi-10-2020-q4-major\arm-none-eabi\include\c++\10.2.1\bits\stl_vector.h **** 	  __tmp._M_copy_data(*this);
 123:c:\tools\gcc-arm-none-eabi-10-2020-q4-major\arm-none-eabi\include\c++\10.2.1\bits\stl_vector.h **** 	  _M_copy_data(__x);
 124:c:\tools\gcc-arm-none-eabi-10-2020-q4-major\arm-none-eabi\include\c++\10.2.1\bits\stl_vector.h **** 	  __x._M_copy_data(__tmp);
 125:c:\tools\gcc-arm-none-eabi-10-2020-q4-major\arm-none-eabi\include\c++\10.2.1\bits\stl_vector.h **** 	}
 126:c:\tools\gcc-arm-none-eabi-10-2020-q4-major\arm-none-eabi\include\c++\10.2.1\bits\stl_vector.h ****       };
 127:c:\tools\gcc-arm-none-eabi-10-2020-q4-major\arm-none-eabi\include\c++\10.2.1\bits\stl_vector.h **** 
 128:c:\tools\gcc-arm-none-eabi-10-2020-q4-major\arm-none-eabi\include\c++\10.2.1\bits\stl_vector.h ****       struct _Vector_impl
 129:c:\tools\gcc-arm-none-eabi-10-2020-q4-major\arm-none-eabi\include\c++\10.2.1\bits\stl_vector.h **** 	: public _Tp_alloc_type, public _Vector_impl_data
 130:c:\tools\gcc-arm-none-eabi-10-2020-q4-major\arm-none-eabi\include\c++\10.2.1\bits\stl_vector.h ****       {
 131:c:\tools\gcc-arm-none-eabi-10-2020-q4-major\arm-none-eabi\include\c++\10.2.1\bits\stl_vector.h **** 	_Vector_impl() _GLIBCXX_NOEXCEPT_IF(
 132:c:\tools\gcc-arm-none-eabi-10-2020-q4-major\arm-none-eabi\include\c++\10.2.1\bits\stl_vector.h **** 	    is_nothrow_default_constructible<_Tp_alloc_type>::value)
 133:c:\tools\gcc-arm-none-eabi-10-2020-q4-major\arm-none-eabi\include\c++\10.2.1\bits\stl_vector.h **** 	: _Tp_alloc_type()
 134:c:\tools\gcc-arm-none-eabi-10-2020-q4-major\arm-none-eabi\include\c++\10.2.1\bits\stl_vector.h **** 	{ }
ARM GAS  C:\Users\saite\AppData\Local\Temp\ccxfQYnf.s 			page 23


 135:c:\tools\gcc-arm-none-eabi-10-2020-q4-major\arm-none-eabi\include\c++\10.2.1\bits\stl_vector.h **** 
 136:c:\tools\gcc-arm-none-eabi-10-2020-q4-major\arm-none-eabi\include\c++\10.2.1\bits\stl_vector.h **** 	_Vector_impl(_Tp_alloc_type const& __a) _GLIBCXX_NOEXCEPT
 137:c:\tools\gcc-arm-none-eabi-10-2020-q4-major\arm-none-eabi\include\c++\10.2.1\bits\stl_vector.h **** 	: _Tp_alloc_type(__a)
 138:c:\tools\gcc-arm-none-eabi-10-2020-q4-major\arm-none-eabi\include\c++\10.2.1\bits\stl_vector.h **** 	{ }
 139:c:\tools\gcc-arm-none-eabi-10-2020-q4-major\arm-none-eabi\include\c++\10.2.1\bits\stl_vector.h **** 
 140:c:\tools\gcc-arm-none-eabi-10-2020-q4-major\arm-none-eabi\include\c++\10.2.1\bits\stl_vector.h **** #if __cplusplus >= 201103L
 141:c:\tools\gcc-arm-none-eabi-10-2020-q4-major\arm-none-eabi\include\c++\10.2.1\bits\stl_vector.h **** 	// Not defaulted, to enforce noexcept(true) even when
 142:c:\tools\gcc-arm-none-eabi-10-2020-q4-major\arm-none-eabi\include\c++\10.2.1\bits\stl_vector.h **** 	// !is_nothrow_move_constructible<_Tp_alloc_type>.
 143:c:\tools\gcc-arm-none-eabi-10-2020-q4-major\arm-none-eabi\include\c++\10.2.1\bits\stl_vector.h **** 	_Vector_impl(_Vector_impl&& __x) noexcept
 144:c:\tools\gcc-arm-none-eabi-10-2020-q4-major\arm-none-eabi\include\c++\10.2.1\bits\stl_vector.h **** 	: _Tp_alloc_type(std::move(__x)), _Vector_impl_data(std::move(__x))
 145:c:\tools\gcc-arm-none-eabi-10-2020-q4-major\arm-none-eabi\include\c++\10.2.1\bits\stl_vector.h **** 	{ }
 146:c:\tools\gcc-arm-none-eabi-10-2020-q4-major\arm-none-eabi\include\c++\10.2.1\bits\stl_vector.h **** 
 147:c:\tools\gcc-arm-none-eabi-10-2020-q4-major\arm-none-eabi\include\c++\10.2.1\bits\stl_vector.h **** 	_Vector_impl(_Tp_alloc_type&& __a) noexcept
 148:c:\tools\gcc-arm-none-eabi-10-2020-q4-major\arm-none-eabi\include\c++\10.2.1\bits\stl_vector.h **** 	: _Tp_alloc_type(std::move(__a))
 149:c:\tools\gcc-arm-none-eabi-10-2020-q4-major\arm-none-eabi\include\c++\10.2.1\bits\stl_vector.h **** 	{ }
 150:c:\tools\gcc-arm-none-eabi-10-2020-q4-major\arm-none-eabi\include\c++\10.2.1\bits\stl_vector.h **** 
 151:c:\tools\gcc-arm-none-eabi-10-2020-q4-major\arm-none-eabi\include\c++\10.2.1\bits\stl_vector.h **** 	_Vector_impl(_Tp_alloc_type&& __a, _Vector_impl&& __rv) noexcept
 152:c:\tools\gcc-arm-none-eabi-10-2020-q4-major\arm-none-eabi\include\c++\10.2.1\bits\stl_vector.h **** 	: _Tp_alloc_type(std::move(__a)), _Vector_impl_data(std::move(__rv))
 153:c:\tools\gcc-arm-none-eabi-10-2020-q4-major\arm-none-eabi\include\c++\10.2.1\bits\stl_vector.h **** 	{ }
 154:c:\tools\gcc-arm-none-eabi-10-2020-q4-major\arm-none-eabi\include\c++\10.2.1\bits\stl_vector.h **** #endif
 155:c:\tools\gcc-arm-none-eabi-10-2020-q4-major\arm-none-eabi\include\c++\10.2.1\bits\stl_vector.h **** 
 156:c:\tools\gcc-arm-none-eabi-10-2020-q4-major\arm-none-eabi\include\c++\10.2.1\bits\stl_vector.h **** #if _GLIBCXX_SANITIZE_STD_ALLOCATOR && _GLIBCXX_SANITIZE_VECTOR
 157:c:\tools\gcc-arm-none-eabi-10-2020-q4-major\arm-none-eabi\include\c++\10.2.1\bits\stl_vector.h **** 	template<typename = _Tp_alloc_type>
 158:c:\tools\gcc-arm-none-eabi-10-2020-q4-major\arm-none-eabi\include\c++\10.2.1\bits\stl_vector.h **** 	  struct _Asan
 159:c:\tools\gcc-arm-none-eabi-10-2020-q4-major\arm-none-eabi\include\c++\10.2.1\bits\stl_vector.h **** 	  {
 160:c:\tools\gcc-arm-none-eabi-10-2020-q4-major\arm-none-eabi\include\c++\10.2.1\bits\stl_vector.h **** 	    typedef typename __gnu_cxx::__alloc_traits<_Tp_alloc_type>
 161:c:\tools\gcc-arm-none-eabi-10-2020-q4-major\arm-none-eabi\include\c++\10.2.1\bits\stl_vector.h **** 	      ::size_type size_type;
 162:c:\tools\gcc-arm-none-eabi-10-2020-q4-major\arm-none-eabi\include\c++\10.2.1\bits\stl_vector.h **** 
 163:c:\tools\gcc-arm-none-eabi-10-2020-q4-major\arm-none-eabi\include\c++\10.2.1\bits\stl_vector.h **** 	    static void _S_shrink(_Vector_impl&, size_type) { }
 164:c:\tools\gcc-arm-none-eabi-10-2020-q4-major\arm-none-eabi\include\c++\10.2.1\bits\stl_vector.h **** 	    static void _S_on_dealloc(_Vector_impl&) { }
 165:c:\tools\gcc-arm-none-eabi-10-2020-q4-major\arm-none-eabi\include\c++\10.2.1\bits\stl_vector.h **** 
 166:c:\tools\gcc-arm-none-eabi-10-2020-q4-major\arm-none-eabi\include\c++\10.2.1\bits\stl_vector.h **** 	    typedef _Vector_impl& _Reinit;
 167:c:\tools\gcc-arm-none-eabi-10-2020-q4-major\arm-none-eabi\include\c++\10.2.1\bits\stl_vector.h **** 
 168:c:\tools\gcc-arm-none-eabi-10-2020-q4-major\arm-none-eabi\include\c++\10.2.1\bits\stl_vector.h **** 	    struct _Grow
 169:c:\tools\gcc-arm-none-eabi-10-2020-q4-major\arm-none-eabi\include\c++\10.2.1\bits\stl_vector.h **** 	    {
 170:c:\tools\gcc-arm-none-eabi-10-2020-q4-major\arm-none-eabi\include\c++\10.2.1\bits\stl_vector.h **** 	      _Grow(_Vector_impl&, size_type) { }
 171:c:\tools\gcc-arm-none-eabi-10-2020-q4-major\arm-none-eabi\include\c++\10.2.1\bits\stl_vector.h **** 	      void _M_grew(size_type) { }
 172:c:\tools\gcc-arm-none-eabi-10-2020-q4-major\arm-none-eabi\include\c++\10.2.1\bits\stl_vector.h **** 	    };
 173:c:\tools\gcc-arm-none-eabi-10-2020-q4-major\arm-none-eabi\include\c++\10.2.1\bits\stl_vector.h **** 	  };
 174:c:\tools\gcc-arm-none-eabi-10-2020-q4-major\arm-none-eabi\include\c++\10.2.1\bits\stl_vector.h **** 
 175:c:\tools\gcc-arm-none-eabi-10-2020-q4-major\arm-none-eabi\include\c++\10.2.1\bits\stl_vector.h **** 	// Enable ASan annotations for memory obtained from std::allocator.
 176:c:\tools\gcc-arm-none-eabi-10-2020-q4-major\arm-none-eabi\include\c++\10.2.1\bits\stl_vector.h **** 	template<typename _Up>
 177:c:\tools\gcc-arm-none-eabi-10-2020-q4-major\arm-none-eabi\include\c++\10.2.1\bits\stl_vector.h **** 	  struct _Asan<allocator<_Up> >
 178:c:\tools\gcc-arm-none-eabi-10-2020-q4-major\arm-none-eabi\include\c++\10.2.1\bits\stl_vector.h **** 	  {
 179:c:\tools\gcc-arm-none-eabi-10-2020-q4-major\arm-none-eabi\include\c++\10.2.1\bits\stl_vector.h **** 	    typedef typename __gnu_cxx::__alloc_traits<_Tp_alloc_type>
 180:c:\tools\gcc-arm-none-eabi-10-2020-q4-major\arm-none-eabi\include\c++\10.2.1\bits\stl_vector.h **** 	      ::size_type size_type;
 181:c:\tools\gcc-arm-none-eabi-10-2020-q4-major\arm-none-eabi\include\c++\10.2.1\bits\stl_vector.h **** 
 182:c:\tools\gcc-arm-none-eabi-10-2020-q4-major\arm-none-eabi\include\c++\10.2.1\bits\stl_vector.h **** 	    // Adjust ASan annotation for [_M_start, _M_end_of_storage) to
 183:c:\tools\gcc-arm-none-eabi-10-2020-q4-major\arm-none-eabi\include\c++\10.2.1\bits\stl_vector.h **** 	    // mark end of valid region as __curr instead of __prev.
 184:c:\tools\gcc-arm-none-eabi-10-2020-q4-major\arm-none-eabi\include\c++\10.2.1\bits\stl_vector.h **** 	    static void
 185:c:\tools\gcc-arm-none-eabi-10-2020-q4-major\arm-none-eabi\include\c++\10.2.1\bits\stl_vector.h **** 	    _S_adjust(_Vector_impl& __impl, pointer __prev, pointer __curr)
 186:c:\tools\gcc-arm-none-eabi-10-2020-q4-major\arm-none-eabi\include\c++\10.2.1\bits\stl_vector.h **** 	    {
 187:c:\tools\gcc-arm-none-eabi-10-2020-q4-major\arm-none-eabi\include\c++\10.2.1\bits\stl_vector.h **** 	      __sanitizer_annotate_contiguous_container(__impl._M_start,
 188:c:\tools\gcc-arm-none-eabi-10-2020-q4-major\arm-none-eabi\include\c++\10.2.1\bits\stl_vector.h **** 		  __impl._M_end_of_storage, __prev, __curr);
 189:c:\tools\gcc-arm-none-eabi-10-2020-q4-major\arm-none-eabi\include\c++\10.2.1\bits\stl_vector.h **** 	    }
 190:c:\tools\gcc-arm-none-eabi-10-2020-q4-major\arm-none-eabi\include\c++\10.2.1\bits\stl_vector.h **** 
 191:c:\tools\gcc-arm-none-eabi-10-2020-q4-major\arm-none-eabi\include\c++\10.2.1\bits\stl_vector.h **** 	    static void
ARM GAS  C:\Users\saite\AppData\Local\Temp\ccxfQYnf.s 			page 24


 192:c:\tools\gcc-arm-none-eabi-10-2020-q4-major\arm-none-eabi\include\c++\10.2.1\bits\stl_vector.h **** 	    _S_grow(_Vector_impl& __impl, size_type __n)
 193:c:\tools\gcc-arm-none-eabi-10-2020-q4-major\arm-none-eabi\include\c++\10.2.1\bits\stl_vector.h **** 	    { _S_adjust(__impl, __impl._M_finish, __impl._M_finish + __n); }
 194:c:\tools\gcc-arm-none-eabi-10-2020-q4-major\arm-none-eabi\include\c++\10.2.1\bits\stl_vector.h **** 
 195:c:\tools\gcc-arm-none-eabi-10-2020-q4-major\arm-none-eabi\include\c++\10.2.1\bits\stl_vector.h **** 	    static void
 196:c:\tools\gcc-arm-none-eabi-10-2020-q4-major\arm-none-eabi\include\c++\10.2.1\bits\stl_vector.h **** 	    _S_shrink(_Vector_impl& __impl, size_type __n)
 197:c:\tools\gcc-arm-none-eabi-10-2020-q4-major\arm-none-eabi\include\c++\10.2.1\bits\stl_vector.h **** 	    { _S_adjust(__impl, __impl._M_finish + __n, __impl._M_finish); }
 198:c:\tools\gcc-arm-none-eabi-10-2020-q4-major\arm-none-eabi\include\c++\10.2.1\bits\stl_vector.h **** 
 199:c:\tools\gcc-arm-none-eabi-10-2020-q4-major\arm-none-eabi\include\c++\10.2.1\bits\stl_vector.h **** 	    static void
 200:c:\tools\gcc-arm-none-eabi-10-2020-q4-major\arm-none-eabi\include\c++\10.2.1\bits\stl_vector.h **** 	    _S_on_dealloc(_Vector_impl& __impl)
 201:c:\tools\gcc-arm-none-eabi-10-2020-q4-major\arm-none-eabi\include\c++\10.2.1\bits\stl_vector.h **** 	    {
 202:c:\tools\gcc-arm-none-eabi-10-2020-q4-major\arm-none-eabi\include\c++\10.2.1\bits\stl_vector.h **** 	      if (__impl._M_start)
 203:c:\tools\gcc-arm-none-eabi-10-2020-q4-major\arm-none-eabi\include\c++\10.2.1\bits\stl_vector.h **** 		_S_adjust(__impl, __impl._M_finish, __impl._M_end_of_storage);
 204:c:\tools\gcc-arm-none-eabi-10-2020-q4-major\arm-none-eabi\include\c++\10.2.1\bits\stl_vector.h **** 	    }
 205:c:\tools\gcc-arm-none-eabi-10-2020-q4-major\arm-none-eabi\include\c++\10.2.1\bits\stl_vector.h **** 
 206:c:\tools\gcc-arm-none-eabi-10-2020-q4-major\arm-none-eabi\include\c++\10.2.1\bits\stl_vector.h **** 	    // Used on reallocation to tell ASan unused capacity is invalid.
 207:c:\tools\gcc-arm-none-eabi-10-2020-q4-major\arm-none-eabi\include\c++\10.2.1\bits\stl_vector.h **** 	    struct _Reinit
 208:c:\tools\gcc-arm-none-eabi-10-2020-q4-major\arm-none-eabi\include\c++\10.2.1\bits\stl_vector.h **** 	    {
 209:c:\tools\gcc-arm-none-eabi-10-2020-q4-major\arm-none-eabi\include\c++\10.2.1\bits\stl_vector.h **** 	      explicit _Reinit(_Vector_impl& __impl) : _M_impl(__impl)
 210:c:\tools\gcc-arm-none-eabi-10-2020-q4-major\arm-none-eabi\include\c++\10.2.1\bits\stl_vector.h **** 	      {
 211:c:\tools\gcc-arm-none-eabi-10-2020-q4-major\arm-none-eabi\include\c++\10.2.1\bits\stl_vector.h **** 		// Mark unused capacity as valid again before deallocating it.
 212:c:\tools\gcc-arm-none-eabi-10-2020-q4-major\arm-none-eabi\include\c++\10.2.1\bits\stl_vector.h **** 		_S_on_dealloc(_M_impl);
 213:c:\tools\gcc-arm-none-eabi-10-2020-q4-major\arm-none-eabi\include\c++\10.2.1\bits\stl_vector.h **** 	      }
 214:c:\tools\gcc-arm-none-eabi-10-2020-q4-major\arm-none-eabi\include\c++\10.2.1\bits\stl_vector.h **** 
 215:c:\tools\gcc-arm-none-eabi-10-2020-q4-major\arm-none-eabi\include\c++\10.2.1\bits\stl_vector.h **** 	      ~_Reinit()
 216:c:\tools\gcc-arm-none-eabi-10-2020-q4-major\arm-none-eabi\include\c++\10.2.1\bits\stl_vector.h **** 	      {
 217:c:\tools\gcc-arm-none-eabi-10-2020-q4-major\arm-none-eabi\include\c++\10.2.1\bits\stl_vector.h **** 		// Mark unused capacity as invalid after reallocation.
 218:c:\tools\gcc-arm-none-eabi-10-2020-q4-major\arm-none-eabi\include\c++\10.2.1\bits\stl_vector.h **** 		if (_M_impl._M_start)
 219:c:\tools\gcc-arm-none-eabi-10-2020-q4-major\arm-none-eabi\include\c++\10.2.1\bits\stl_vector.h **** 		  _S_adjust(_M_impl, _M_impl._M_end_of_storage,
 220:c:\tools\gcc-arm-none-eabi-10-2020-q4-major\arm-none-eabi\include\c++\10.2.1\bits\stl_vector.h **** 			    _M_impl._M_finish);
 221:c:\tools\gcc-arm-none-eabi-10-2020-q4-major\arm-none-eabi\include\c++\10.2.1\bits\stl_vector.h **** 	      }
 222:c:\tools\gcc-arm-none-eabi-10-2020-q4-major\arm-none-eabi\include\c++\10.2.1\bits\stl_vector.h **** 
 223:c:\tools\gcc-arm-none-eabi-10-2020-q4-major\arm-none-eabi\include\c++\10.2.1\bits\stl_vector.h **** 	      _Vector_impl& _M_impl;
 224:c:\tools\gcc-arm-none-eabi-10-2020-q4-major\arm-none-eabi\include\c++\10.2.1\bits\stl_vector.h **** 
 225:c:\tools\gcc-arm-none-eabi-10-2020-q4-major\arm-none-eabi\include\c++\10.2.1\bits\stl_vector.h **** #if __cplusplus >= 201103L
 226:c:\tools\gcc-arm-none-eabi-10-2020-q4-major\arm-none-eabi\include\c++\10.2.1\bits\stl_vector.h **** 	      _Reinit(const _Reinit&) = delete;
 227:c:\tools\gcc-arm-none-eabi-10-2020-q4-major\arm-none-eabi\include\c++\10.2.1\bits\stl_vector.h **** 	      _Reinit& operator=(const _Reinit&) = delete;
 228:c:\tools\gcc-arm-none-eabi-10-2020-q4-major\arm-none-eabi\include\c++\10.2.1\bits\stl_vector.h **** #endif
 229:c:\tools\gcc-arm-none-eabi-10-2020-q4-major\arm-none-eabi\include\c++\10.2.1\bits\stl_vector.h **** 	    };
 230:c:\tools\gcc-arm-none-eabi-10-2020-q4-major\arm-none-eabi\include\c++\10.2.1\bits\stl_vector.h **** 
 231:c:\tools\gcc-arm-none-eabi-10-2020-q4-major\arm-none-eabi\include\c++\10.2.1\bits\stl_vector.h **** 	    // Tell ASan when unused capacity is initialized to be valid.
 232:c:\tools\gcc-arm-none-eabi-10-2020-q4-major\arm-none-eabi\include\c++\10.2.1\bits\stl_vector.h **** 	    struct _Grow
 233:c:\tools\gcc-arm-none-eabi-10-2020-q4-major\arm-none-eabi\include\c++\10.2.1\bits\stl_vector.h **** 	    {
 234:c:\tools\gcc-arm-none-eabi-10-2020-q4-major\arm-none-eabi\include\c++\10.2.1\bits\stl_vector.h **** 	      _Grow(_Vector_impl& __impl, size_type __n)
 235:c:\tools\gcc-arm-none-eabi-10-2020-q4-major\arm-none-eabi\include\c++\10.2.1\bits\stl_vector.h **** 	      : _M_impl(__impl), _M_n(__n)
 236:c:\tools\gcc-arm-none-eabi-10-2020-q4-major\arm-none-eabi\include\c++\10.2.1\bits\stl_vector.h **** 	      { _S_grow(_M_impl, __n); }
 237:c:\tools\gcc-arm-none-eabi-10-2020-q4-major\arm-none-eabi\include\c++\10.2.1\bits\stl_vector.h **** 
 238:c:\tools\gcc-arm-none-eabi-10-2020-q4-major\arm-none-eabi\include\c++\10.2.1\bits\stl_vector.h **** 	      ~_Grow() { if (_M_n) _S_shrink(_M_impl, _M_n); }
 239:c:\tools\gcc-arm-none-eabi-10-2020-q4-major\arm-none-eabi\include\c++\10.2.1\bits\stl_vector.h **** 
 240:c:\tools\gcc-arm-none-eabi-10-2020-q4-major\arm-none-eabi\include\c++\10.2.1\bits\stl_vector.h **** 	      void _M_grew(size_type __n) { _M_n -= __n; }
 241:c:\tools\gcc-arm-none-eabi-10-2020-q4-major\arm-none-eabi\include\c++\10.2.1\bits\stl_vector.h **** 
 242:c:\tools\gcc-arm-none-eabi-10-2020-q4-major\arm-none-eabi\include\c++\10.2.1\bits\stl_vector.h **** #if __cplusplus >= 201103L
 243:c:\tools\gcc-arm-none-eabi-10-2020-q4-major\arm-none-eabi\include\c++\10.2.1\bits\stl_vector.h **** 	      _Grow(const _Grow&) = delete;
 244:c:\tools\gcc-arm-none-eabi-10-2020-q4-major\arm-none-eabi\include\c++\10.2.1\bits\stl_vector.h **** 	      _Grow& operator=(const _Grow&) = delete;
 245:c:\tools\gcc-arm-none-eabi-10-2020-q4-major\arm-none-eabi\include\c++\10.2.1\bits\stl_vector.h **** #endif
 246:c:\tools\gcc-arm-none-eabi-10-2020-q4-major\arm-none-eabi\include\c++\10.2.1\bits\stl_vector.h **** 	    private:
 247:c:\tools\gcc-arm-none-eabi-10-2020-q4-major\arm-none-eabi\include\c++\10.2.1\bits\stl_vector.h **** 	      _Vector_impl& _M_impl;
 248:c:\tools\gcc-arm-none-eabi-10-2020-q4-major\arm-none-eabi\include\c++\10.2.1\bits\stl_vector.h **** 	      size_type _M_n;
ARM GAS  C:\Users\saite\AppData\Local\Temp\ccxfQYnf.s 			page 25


 249:c:\tools\gcc-arm-none-eabi-10-2020-q4-major\arm-none-eabi\include\c++\10.2.1\bits\stl_vector.h **** 	    };
 250:c:\tools\gcc-arm-none-eabi-10-2020-q4-major\arm-none-eabi\include\c++\10.2.1\bits\stl_vector.h **** 	  };
 251:c:\tools\gcc-arm-none-eabi-10-2020-q4-major\arm-none-eabi\include\c++\10.2.1\bits\stl_vector.h **** 
 252:c:\tools\gcc-arm-none-eabi-10-2020-q4-major\arm-none-eabi\include\c++\10.2.1\bits\stl_vector.h **** #define _GLIBCXX_ASAN_ANNOTATE_REINIT \
 253:c:\tools\gcc-arm-none-eabi-10-2020-q4-major\arm-none-eabi\include\c++\10.2.1\bits\stl_vector.h ****   typename _Base::_Vector_impl::template _Asan<>::_Reinit const \
 254:c:\tools\gcc-arm-none-eabi-10-2020-q4-major\arm-none-eabi\include\c++\10.2.1\bits\stl_vector.h **** 	__attribute__((__unused__)) __reinit_guard(this->_M_impl)
 255:c:\tools\gcc-arm-none-eabi-10-2020-q4-major\arm-none-eabi\include\c++\10.2.1\bits\stl_vector.h **** #define _GLIBCXX_ASAN_ANNOTATE_GROW(n) \
 256:c:\tools\gcc-arm-none-eabi-10-2020-q4-major\arm-none-eabi\include\c++\10.2.1\bits\stl_vector.h ****   typename _Base::_Vector_impl::template _Asan<>::_Grow \
 257:c:\tools\gcc-arm-none-eabi-10-2020-q4-major\arm-none-eabi\include\c++\10.2.1\bits\stl_vector.h **** 	__attribute__((__unused__)) __grow_guard(this->_M_impl, (n))
 258:c:\tools\gcc-arm-none-eabi-10-2020-q4-major\arm-none-eabi\include\c++\10.2.1\bits\stl_vector.h **** #define _GLIBCXX_ASAN_ANNOTATE_GREW(n) __grow_guard._M_grew(n)
 259:c:\tools\gcc-arm-none-eabi-10-2020-q4-major\arm-none-eabi\include\c++\10.2.1\bits\stl_vector.h **** #define _GLIBCXX_ASAN_ANNOTATE_SHRINK(n) \
 260:c:\tools\gcc-arm-none-eabi-10-2020-q4-major\arm-none-eabi\include\c++\10.2.1\bits\stl_vector.h ****   _Base::_Vector_impl::template _Asan<>::_S_shrink(this->_M_impl, n)
 261:c:\tools\gcc-arm-none-eabi-10-2020-q4-major\arm-none-eabi\include\c++\10.2.1\bits\stl_vector.h **** #define _GLIBCXX_ASAN_ANNOTATE_BEFORE_DEALLOC \
 262:c:\tools\gcc-arm-none-eabi-10-2020-q4-major\arm-none-eabi\include\c++\10.2.1\bits\stl_vector.h ****   _Base::_Vector_impl::template _Asan<>::_S_on_dealloc(this->_M_impl)
 263:c:\tools\gcc-arm-none-eabi-10-2020-q4-major\arm-none-eabi\include\c++\10.2.1\bits\stl_vector.h **** #else // ! (_GLIBCXX_SANITIZE_STD_ALLOCATOR && _GLIBCXX_SANITIZE_VECTOR)
 264:c:\tools\gcc-arm-none-eabi-10-2020-q4-major\arm-none-eabi\include\c++\10.2.1\bits\stl_vector.h **** #define _GLIBCXX_ASAN_ANNOTATE_REINIT
 265:c:\tools\gcc-arm-none-eabi-10-2020-q4-major\arm-none-eabi\include\c++\10.2.1\bits\stl_vector.h **** #define _GLIBCXX_ASAN_ANNOTATE_GROW(n)
 266:c:\tools\gcc-arm-none-eabi-10-2020-q4-major\arm-none-eabi\include\c++\10.2.1\bits\stl_vector.h **** #define _GLIBCXX_ASAN_ANNOTATE_GREW(n)
 267:c:\tools\gcc-arm-none-eabi-10-2020-q4-major\arm-none-eabi\include\c++\10.2.1\bits\stl_vector.h **** #define _GLIBCXX_ASAN_ANNOTATE_SHRINK(n)
 268:c:\tools\gcc-arm-none-eabi-10-2020-q4-major\arm-none-eabi\include\c++\10.2.1\bits\stl_vector.h **** #define _GLIBCXX_ASAN_ANNOTATE_BEFORE_DEALLOC
 269:c:\tools\gcc-arm-none-eabi-10-2020-q4-major\arm-none-eabi\include\c++\10.2.1\bits\stl_vector.h **** #endif // _GLIBCXX_SANITIZE_STD_ALLOCATOR && _GLIBCXX_SANITIZE_VECTOR
 270:c:\tools\gcc-arm-none-eabi-10-2020-q4-major\arm-none-eabi\include\c++\10.2.1\bits\stl_vector.h ****       };
 271:c:\tools\gcc-arm-none-eabi-10-2020-q4-major\arm-none-eabi\include\c++\10.2.1\bits\stl_vector.h **** 
 272:c:\tools\gcc-arm-none-eabi-10-2020-q4-major\arm-none-eabi\include\c++\10.2.1\bits\stl_vector.h ****     public:
 273:c:\tools\gcc-arm-none-eabi-10-2020-q4-major\arm-none-eabi\include\c++\10.2.1\bits\stl_vector.h ****       typedef _Alloc allocator_type;
 274:c:\tools\gcc-arm-none-eabi-10-2020-q4-major\arm-none-eabi\include\c++\10.2.1\bits\stl_vector.h **** 
 275:c:\tools\gcc-arm-none-eabi-10-2020-q4-major\arm-none-eabi\include\c++\10.2.1\bits\stl_vector.h ****       _Tp_alloc_type&
 276:c:\tools\gcc-arm-none-eabi-10-2020-q4-major\arm-none-eabi\include\c++\10.2.1\bits\stl_vector.h ****       _M_get_Tp_allocator() _GLIBCXX_NOEXCEPT
 277:c:\tools\gcc-arm-none-eabi-10-2020-q4-major\arm-none-eabi\include\c++\10.2.1\bits\stl_vector.h ****       { return this->_M_impl; }
 278:c:\tools\gcc-arm-none-eabi-10-2020-q4-major\arm-none-eabi\include\c++\10.2.1\bits\stl_vector.h **** 
 279:c:\tools\gcc-arm-none-eabi-10-2020-q4-major\arm-none-eabi\include\c++\10.2.1\bits\stl_vector.h ****       const _Tp_alloc_type&
 280:c:\tools\gcc-arm-none-eabi-10-2020-q4-major\arm-none-eabi\include\c++\10.2.1\bits\stl_vector.h ****       _M_get_Tp_allocator() const _GLIBCXX_NOEXCEPT
 281:c:\tools\gcc-arm-none-eabi-10-2020-q4-major\arm-none-eabi\include\c++\10.2.1\bits\stl_vector.h ****       { return this->_M_impl; }
 282:c:\tools\gcc-arm-none-eabi-10-2020-q4-major\arm-none-eabi\include\c++\10.2.1\bits\stl_vector.h **** 
 283:c:\tools\gcc-arm-none-eabi-10-2020-q4-major\arm-none-eabi\include\c++\10.2.1\bits\stl_vector.h ****       allocator_type
 284:c:\tools\gcc-arm-none-eabi-10-2020-q4-major\arm-none-eabi\include\c++\10.2.1\bits\stl_vector.h ****       get_allocator() const _GLIBCXX_NOEXCEPT
 285:c:\tools\gcc-arm-none-eabi-10-2020-q4-major\arm-none-eabi\include\c++\10.2.1\bits\stl_vector.h ****       { return allocator_type(_M_get_Tp_allocator()); }
 286:c:\tools\gcc-arm-none-eabi-10-2020-q4-major\arm-none-eabi\include\c++\10.2.1\bits\stl_vector.h **** 
 287:c:\tools\gcc-arm-none-eabi-10-2020-q4-major\arm-none-eabi\include\c++\10.2.1\bits\stl_vector.h **** #if __cplusplus >= 201103L
 288:c:\tools\gcc-arm-none-eabi-10-2020-q4-major\arm-none-eabi\include\c++\10.2.1\bits\stl_vector.h ****       _Vector_base() = default;
 289:c:\tools\gcc-arm-none-eabi-10-2020-q4-major\arm-none-eabi\include\c++\10.2.1\bits\stl_vector.h **** #else
 290:c:\tools\gcc-arm-none-eabi-10-2020-q4-major\arm-none-eabi\include\c++\10.2.1\bits\stl_vector.h ****       _Vector_base() { }
 291:c:\tools\gcc-arm-none-eabi-10-2020-q4-major\arm-none-eabi\include\c++\10.2.1\bits\stl_vector.h **** #endif
 292:c:\tools\gcc-arm-none-eabi-10-2020-q4-major\arm-none-eabi\include\c++\10.2.1\bits\stl_vector.h **** 
 293:c:\tools\gcc-arm-none-eabi-10-2020-q4-major\arm-none-eabi\include\c++\10.2.1\bits\stl_vector.h ****       _Vector_base(const allocator_type& __a) _GLIBCXX_NOEXCEPT
 294:c:\tools\gcc-arm-none-eabi-10-2020-q4-major\arm-none-eabi\include\c++\10.2.1\bits\stl_vector.h ****       : _M_impl(__a) { }
 295:c:\tools\gcc-arm-none-eabi-10-2020-q4-major\arm-none-eabi\include\c++\10.2.1\bits\stl_vector.h **** 
 296:c:\tools\gcc-arm-none-eabi-10-2020-q4-major\arm-none-eabi\include\c++\10.2.1\bits\stl_vector.h ****       // Kept for ABI compatibility.
 297:c:\tools\gcc-arm-none-eabi-10-2020-q4-major\arm-none-eabi\include\c++\10.2.1\bits\stl_vector.h **** #if !_GLIBCXX_INLINE_VERSION
 298:c:\tools\gcc-arm-none-eabi-10-2020-q4-major\arm-none-eabi\include\c++\10.2.1\bits\stl_vector.h ****       _Vector_base(size_t __n)
 299:c:\tools\gcc-arm-none-eabi-10-2020-q4-major\arm-none-eabi\include\c++\10.2.1\bits\stl_vector.h ****       : _M_impl()
 300:c:\tools\gcc-arm-none-eabi-10-2020-q4-major\arm-none-eabi\include\c++\10.2.1\bits\stl_vector.h ****       { _M_create_storage(__n); }
 301:c:\tools\gcc-arm-none-eabi-10-2020-q4-major\arm-none-eabi\include\c++\10.2.1\bits\stl_vector.h **** #endif
 302:c:\tools\gcc-arm-none-eabi-10-2020-q4-major\arm-none-eabi\include\c++\10.2.1\bits\stl_vector.h **** 
 303:c:\tools\gcc-arm-none-eabi-10-2020-q4-major\arm-none-eabi\include\c++\10.2.1\bits\stl_vector.h ****       _Vector_base(size_t __n, const allocator_type& __a)
 304:c:\tools\gcc-arm-none-eabi-10-2020-q4-major\arm-none-eabi\include\c++\10.2.1\bits\stl_vector.h ****       : _M_impl(__a)
 305:c:\tools\gcc-arm-none-eabi-10-2020-q4-major\arm-none-eabi\include\c++\10.2.1\bits\stl_vector.h ****       { _M_create_storage(__n); }
ARM GAS  C:\Users\saite\AppData\Local\Temp\ccxfQYnf.s 			page 26


 306:c:\tools\gcc-arm-none-eabi-10-2020-q4-major\arm-none-eabi\include\c++\10.2.1\bits\stl_vector.h **** 
 307:c:\tools\gcc-arm-none-eabi-10-2020-q4-major\arm-none-eabi\include\c++\10.2.1\bits\stl_vector.h **** #if __cplusplus >= 201103L
 308:c:\tools\gcc-arm-none-eabi-10-2020-q4-major\arm-none-eabi\include\c++\10.2.1\bits\stl_vector.h ****       _Vector_base(_Vector_base&&) = default;
 309:c:\tools\gcc-arm-none-eabi-10-2020-q4-major\arm-none-eabi\include\c++\10.2.1\bits\stl_vector.h **** 
 310:c:\tools\gcc-arm-none-eabi-10-2020-q4-major\arm-none-eabi\include\c++\10.2.1\bits\stl_vector.h ****       // Kept for ABI compatibility.
 311:c:\tools\gcc-arm-none-eabi-10-2020-q4-major\arm-none-eabi\include\c++\10.2.1\bits\stl_vector.h **** # if !_GLIBCXX_INLINE_VERSION
 312:c:\tools\gcc-arm-none-eabi-10-2020-q4-major\arm-none-eabi\include\c++\10.2.1\bits\stl_vector.h ****       _Vector_base(_Tp_alloc_type&& __a) noexcept
 313:c:\tools\gcc-arm-none-eabi-10-2020-q4-major\arm-none-eabi\include\c++\10.2.1\bits\stl_vector.h ****       : _M_impl(std::move(__a)) { }
 314:c:\tools\gcc-arm-none-eabi-10-2020-q4-major\arm-none-eabi\include\c++\10.2.1\bits\stl_vector.h **** 
 315:c:\tools\gcc-arm-none-eabi-10-2020-q4-major\arm-none-eabi\include\c++\10.2.1\bits\stl_vector.h ****       _Vector_base(_Vector_base&& __x, const allocator_type& __a)
 316:c:\tools\gcc-arm-none-eabi-10-2020-q4-major\arm-none-eabi\include\c++\10.2.1\bits\stl_vector.h ****       : _M_impl(__a)
 317:c:\tools\gcc-arm-none-eabi-10-2020-q4-major\arm-none-eabi\include\c++\10.2.1\bits\stl_vector.h ****       {
 318:c:\tools\gcc-arm-none-eabi-10-2020-q4-major\arm-none-eabi\include\c++\10.2.1\bits\stl_vector.h **** 	if (__x.get_allocator() == __a)
 319:c:\tools\gcc-arm-none-eabi-10-2020-q4-major\arm-none-eabi\include\c++\10.2.1\bits\stl_vector.h **** 	  this->_M_impl._M_swap_data(__x._M_impl);
 320:c:\tools\gcc-arm-none-eabi-10-2020-q4-major\arm-none-eabi\include\c++\10.2.1\bits\stl_vector.h **** 	else
 321:c:\tools\gcc-arm-none-eabi-10-2020-q4-major\arm-none-eabi\include\c++\10.2.1\bits\stl_vector.h **** 	  {
 322:c:\tools\gcc-arm-none-eabi-10-2020-q4-major\arm-none-eabi\include\c++\10.2.1\bits\stl_vector.h **** 	    size_t __n = __x._M_impl._M_finish - __x._M_impl._M_start;
 323:c:\tools\gcc-arm-none-eabi-10-2020-q4-major\arm-none-eabi\include\c++\10.2.1\bits\stl_vector.h **** 	    _M_create_storage(__n);
 324:c:\tools\gcc-arm-none-eabi-10-2020-q4-major\arm-none-eabi\include\c++\10.2.1\bits\stl_vector.h **** 	  }
 325:c:\tools\gcc-arm-none-eabi-10-2020-q4-major\arm-none-eabi\include\c++\10.2.1\bits\stl_vector.h ****       }
 326:c:\tools\gcc-arm-none-eabi-10-2020-q4-major\arm-none-eabi\include\c++\10.2.1\bits\stl_vector.h **** # endif
 327:c:\tools\gcc-arm-none-eabi-10-2020-q4-major\arm-none-eabi\include\c++\10.2.1\bits\stl_vector.h **** 
 328:c:\tools\gcc-arm-none-eabi-10-2020-q4-major\arm-none-eabi\include\c++\10.2.1\bits\stl_vector.h ****       _Vector_base(const allocator_type& __a, _Vector_base&& __x)
 329:c:\tools\gcc-arm-none-eabi-10-2020-q4-major\arm-none-eabi\include\c++\10.2.1\bits\stl_vector.h ****       : _M_impl(_Tp_alloc_type(__a), std::move(__x._M_impl))
 330:c:\tools\gcc-arm-none-eabi-10-2020-q4-major\arm-none-eabi\include\c++\10.2.1\bits\stl_vector.h ****       { }
 331:c:\tools\gcc-arm-none-eabi-10-2020-q4-major\arm-none-eabi\include\c++\10.2.1\bits\stl_vector.h **** #endif
 332:c:\tools\gcc-arm-none-eabi-10-2020-q4-major\arm-none-eabi\include\c++\10.2.1\bits\stl_vector.h **** 
 333:c:\tools\gcc-arm-none-eabi-10-2020-q4-major\arm-none-eabi\include\c++\10.2.1\bits\stl_vector.h ****       ~_Vector_base() _GLIBCXX_NOEXCEPT
 334:c:\tools\gcc-arm-none-eabi-10-2020-q4-major\arm-none-eabi\include\c++\10.2.1\bits\stl_vector.h ****       {
 335:c:\tools\gcc-arm-none-eabi-10-2020-q4-major\arm-none-eabi\include\c++\10.2.1\bits\stl_vector.h **** 	_M_deallocate(_M_impl._M_start,
 336:c:\tools\gcc-arm-none-eabi-10-2020-q4-major\arm-none-eabi\include\c++\10.2.1\bits\stl_vector.h **** 		      _M_impl._M_end_of_storage - _M_impl._M_start);
 337:c:\tools\gcc-arm-none-eabi-10-2020-q4-major\arm-none-eabi\include\c++\10.2.1\bits\stl_vector.h ****       }
 338:c:\tools\gcc-arm-none-eabi-10-2020-q4-major\arm-none-eabi\include\c++\10.2.1\bits\stl_vector.h **** 
 339:c:\tools\gcc-arm-none-eabi-10-2020-q4-major\arm-none-eabi\include\c++\10.2.1\bits\stl_vector.h ****     public:
 340:c:\tools\gcc-arm-none-eabi-10-2020-q4-major\arm-none-eabi\include\c++\10.2.1\bits\stl_vector.h ****       _Vector_impl _M_impl;
 341:c:\tools\gcc-arm-none-eabi-10-2020-q4-major\arm-none-eabi\include\c++\10.2.1\bits\stl_vector.h **** 
 342:c:\tools\gcc-arm-none-eabi-10-2020-q4-major\arm-none-eabi\include\c++\10.2.1\bits\stl_vector.h ****       pointer
 343:c:\tools\gcc-arm-none-eabi-10-2020-q4-major\arm-none-eabi\include\c++\10.2.1\bits\stl_vector.h ****       _M_allocate(size_t __n)
 344:c:\tools\gcc-arm-none-eabi-10-2020-q4-major\arm-none-eabi\include\c++\10.2.1\bits\stl_vector.h ****       {
 345:c:\tools\gcc-arm-none-eabi-10-2020-q4-major\arm-none-eabi\include\c++\10.2.1\bits\stl_vector.h **** 	typedef __gnu_cxx::__alloc_traits<_Tp_alloc_type> _Tr;
 346:c:\tools\gcc-arm-none-eabi-10-2020-q4-major\arm-none-eabi\include\c++\10.2.1\bits\stl_vector.h **** 	return __n != 0 ? _Tr::allocate(_M_impl, __n) : pointer();
 347:c:\tools\gcc-arm-none-eabi-10-2020-q4-major\arm-none-eabi\include\c++\10.2.1\bits\stl_vector.h ****       }
 348:c:\tools\gcc-arm-none-eabi-10-2020-q4-major\arm-none-eabi\include\c++\10.2.1\bits\stl_vector.h **** 
 349:c:\tools\gcc-arm-none-eabi-10-2020-q4-major\arm-none-eabi\include\c++\10.2.1\bits\stl_vector.h ****       void
 350:c:\tools\gcc-arm-none-eabi-10-2020-q4-major\arm-none-eabi\include\c++\10.2.1\bits\stl_vector.h ****       _M_deallocate(pointer __p, size_t __n)
 351:c:\tools\gcc-arm-none-eabi-10-2020-q4-major\arm-none-eabi\include\c++\10.2.1\bits\stl_vector.h ****       {
 352:c:\tools\gcc-arm-none-eabi-10-2020-q4-major\arm-none-eabi\include\c++\10.2.1\bits\stl_vector.h **** 	typedef __gnu_cxx::__alloc_traits<_Tp_alloc_type> _Tr;
 353:c:\tools\gcc-arm-none-eabi-10-2020-q4-major\arm-none-eabi\include\c++\10.2.1\bits\stl_vector.h **** 	if (__p)
 354:c:\tools\gcc-arm-none-eabi-10-2020-q4-major\arm-none-eabi\include\c++\10.2.1\bits\stl_vector.h **** 	  _Tr::deallocate(_M_impl, __p, __n);
 355:c:\tools\gcc-arm-none-eabi-10-2020-q4-major\arm-none-eabi\include\c++\10.2.1\bits\stl_vector.h ****       }
 356:c:\tools\gcc-arm-none-eabi-10-2020-q4-major\arm-none-eabi\include\c++\10.2.1\bits\stl_vector.h **** 
 357:c:\tools\gcc-arm-none-eabi-10-2020-q4-major\arm-none-eabi\include\c++\10.2.1\bits\stl_vector.h ****     protected:
 358:c:\tools\gcc-arm-none-eabi-10-2020-q4-major\arm-none-eabi\include\c++\10.2.1\bits\stl_vector.h ****       void
 359:c:\tools\gcc-arm-none-eabi-10-2020-q4-major\arm-none-eabi\include\c++\10.2.1\bits\stl_vector.h ****       _M_create_storage(size_t __n)
 360:c:\tools\gcc-arm-none-eabi-10-2020-q4-major\arm-none-eabi\include\c++\10.2.1\bits\stl_vector.h ****       {
 361:c:\tools\gcc-arm-none-eabi-10-2020-q4-major\arm-none-eabi\include\c++\10.2.1\bits\stl_vector.h **** 	this->_M_impl._M_start = this->_M_allocate(__n);
 362:c:\tools\gcc-arm-none-eabi-10-2020-q4-major\arm-none-eabi\include\c++\10.2.1\bits\stl_vector.h **** 	this->_M_impl._M_finish = this->_M_impl._M_start;
ARM GAS  C:\Users\saite\AppData\Local\Temp\ccxfQYnf.s 			page 27


 363:c:\tools\gcc-arm-none-eabi-10-2020-q4-major\arm-none-eabi\include\c++\10.2.1\bits\stl_vector.h **** 	this->_M_impl._M_end_of_storage = this->_M_impl._M_start + __n;
 364:c:\tools\gcc-arm-none-eabi-10-2020-q4-major\arm-none-eabi\include\c++\10.2.1\bits\stl_vector.h ****       }
 365:c:\tools\gcc-arm-none-eabi-10-2020-q4-major\arm-none-eabi\include\c++\10.2.1\bits\stl_vector.h ****     };
 366:c:\tools\gcc-arm-none-eabi-10-2020-q4-major\arm-none-eabi\include\c++\10.2.1\bits\stl_vector.h **** 
 367:c:\tools\gcc-arm-none-eabi-10-2020-q4-major\arm-none-eabi\include\c++\10.2.1\bits\stl_vector.h ****   /**
 368:c:\tools\gcc-arm-none-eabi-10-2020-q4-major\arm-none-eabi\include\c++\10.2.1\bits\stl_vector.h ****    *  @brief A standard container which offers fixed time access to
 369:c:\tools\gcc-arm-none-eabi-10-2020-q4-major\arm-none-eabi\include\c++\10.2.1\bits\stl_vector.h ****    *  individual elements in any order.
 370:c:\tools\gcc-arm-none-eabi-10-2020-q4-major\arm-none-eabi\include\c++\10.2.1\bits\stl_vector.h ****    *
 371:c:\tools\gcc-arm-none-eabi-10-2020-q4-major\arm-none-eabi\include\c++\10.2.1\bits\stl_vector.h ****    *  @ingroup sequences
 372:c:\tools\gcc-arm-none-eabi-10-2020-q4-major\arm-none-eabi\include\c++\10.2.1\bits\stl_vector.h ****    *
 373:c:\tools\gcc-arm-none-eabi-10-2020-q4-major\arm-none-eabi\include\c++\10.2.1\bits\stl_vector.h ****    *  @tparam _Tp  Type of element.
 374:c:\tools\gcc-arm-none-eabi-10-2020-q4-major\arm-none-eabi\include\c++\10.2.1\bits\stl_vector.h ****    *  @tparam _Alloc  Allocator type, defaults to allocator<_Tp>.
 375:c:\tools\gcc-arm-none-eabi-10-2020-q4-major\arm-none-eabi\include\c++\10.2.1\bits\stl_vector.h ****    *
 376:c:\tools\gcc-arm-none-eabi-10-2020-q4-major\arm-none-eabi\include\c++\10.2.1\bits\stl_vector.h ****    *  Meets the requirements of a <a href="tables.html#65">container</a>, a
 377:c:\tools\gcc-arm-none-eabi-10-2020-q4-major\arm-none-eabi\include\c++\10.2.1\bits\stl_vector.h ****    *  <a href="tables.html#66">reversible container</a>, and a
 378:c:\tools\gcc-arm-none-eabi-10-2020-q4-major\arm-none-eabi\include\c++\10.2.1\bits\stl_vector.h ****    *  <a href="tables.html#67">sequence</a>, including the
 379:c:\tools\gcc-arm-none-eabi-10-2020-q4-major\arm-none-eabi\include\c++\10.2.1\bits\stl_vector.h ****    *  <a href="tables.html#68">optional sequence requirements</a> with the
 380:c:\tools\gcc-arm-none-eabi-10-2020-q4-major\arm-none-eabi\include\c++\10.2.1\bits\stl_vector.h ****    *  %exception of @c push_front and @c pop_front.
 381:c:\tools\gcc-arm-none-eabi-10-2020-q4-major\arm-none-eabi\include\c++\10.2.1\bits\stl_vector.h ****    *
 382:c:\tools\gcc-arm-none-eabi-10-2020-q4-major\arm-none-eabi\include\c++\10.2.1\bits\stl_vector.h ****    *  In some terminology a %vector can be described as a dynamic
 383:c:\tools\gcc-arm-none-eabi-10-2020-q4-major\arm-none-eabi\include\c++\10.2.1\bits\stl_vector.h ****    *  C-style array, it offers fast and efficient access to individual
 384:c:\tools\gcc-arm-none-eabi-10-2020-q4-major\arm-none-eabi\include\c++\10.2.1\bits\stl_vector.h ****    *  elements in any order and saves the user from worrying about
 385:c:\tools\gcc-arm-none-eabi-10-2020-q4-major\arm-none-eabi\include\c++\10.2.1\bits\stl_vector.h ****    *  memory and size allocation.  Subscripting ( @c [] ) access is
 386:c:\tools\gcc-arm-none-eabi-10-2020-q4-major\arm-none-eabi\include\c++\10.2.1\bits\stl_vector.h ****    *  also provided as with C-style arrays.
 387:c:\tools\gcc-arm-none-eabi-10-2020-q4-major\arm-none-eabi\include\c++\10.2.1\bits\stl_vector.h ****   */
 388:c:\tools\gcc-arm-none-eabi-10-2020-q4-major\arm-none-eabi\include\c++\10.2.1\bits\stl_vector.h ****   template<typename _Tp, typename _Alloc = std::allocator<_Tp> >
 389:c:\tools\gcc-arm-none-eabi-10-2020-q4-major\arm-none-eabi\include\c++\10.2.1\bits\stl_vector.h ****     class vector : protected _Vector_base<_Tp, _Alloc>
 390:c:\tools\gcc-arm-none-eabi-10-2020-q4-major\arm-none-eabi\include\c++\10.2.1\bits\stl_vector.h ****     {
 391:c:\tools\gcc-arm-none-eabi-10-2020-q4-major\arm-none-eabi\include\c++\10.2.1\bits\stl_vector.h **** #ifdef _GLIBCXX_CONCEPT_CHECKS
 392:c:\tools\gcc-arm-none-eabi-10-2020-q4-major\arm-none-eabi\include\c++\10.2.1\bits\stl_vector.h ****       // Concept requirements.
 393:c:\tools\gcc-arm-none-eabi-10-2020-q4-major\arm-none-eabi\include\c++\10.2.1\bits\stl_vector.h ****       typedef typename _Alloc::value_type		_Alloc_value_type;
 394:c:\tools\gcc-arm-none-eabi-10-2020-q4-major\arm-none-eabi\include\c++\10.2.1\bits\stl_vector.h **** # if __cplusplus < 201103L
 395:c:\tools\gcc-arm-none-eabi-10-2020-q4-major\arm-none-eabi\include\c++\10.2.1\bits\stl_vector.h ****       __glibcxx_class_requires(_Tp, _SGIAssignableConcept)
 396:c:\tools\gcc-arm-none-eabi-10-2020-q4-major\arm-none-eabi\include\c++\10.2.1\bits\stl_vector.h **** # endif
 397:c:\tools\gcc-arm-none-eabi-10-2020-q4-major\arm-none-eabi\include\c++\10.2.1\bits\stl_vector.h ****       __glibcxx_class_requires2(_Tp, _Alloc_value_type, _SameTypeConcept)
 398:c:\tools\gcc-arm-none-eabi-10-2020-q4-major\arm-none-eabi\include\c++\10.2.1\bits\stl_vector.h **** #endif
 399:c:\tools\gcc-arm-none-eabi-10-2020-q4-major\arm-none-eabi\include\c++\10.2.1\bits\stl_vector.h **** 
 400:c:\tools\gcc-arm-none-eabi-10-2020-q4-major\arm-none-eabi\include\c++\10.2.1\bits\stl_vector.h **** #if __cplusplus >= 201103L
 401:c:\tools\gcc-arm-none-eabi-10-2020-q4-major\arm-none-eabi\include\c++\10.2.1\bits\stl_vector.h ****       static_assert(is_same<typename remove_cv<_Tp>::type, _Tp>::value,
 402:c:\tools\gcc-arm-none-eabi-10-2020-q4-major\arm-none-eabi\include\c++\10.2.1\bits\stl_vector.h **** 	  "std::vector must have a non-const, non-volatile value_type");
 403:c:\tools\gcc-arm-none-eabi-10-2020-q4-major\arm-none-eabi\include\c++\10.2.1\bits\stl_vector.h **** # if __cplusplus > 201703L || defined __STRICT_ANSI__
 404:c:\tools\gcc-arm-none-eabi-10-2020-q4-major\arm-none-eabi\include\c++\10.2.1\bits\stl_vector.h ****       static_assert(is_same<typename _Alloc::value_type, _Tp>::value,
 405:c:\tools\gcc-arm-none-eabi-10-2020-q4-major\arm-none-eabi\include\c++\10.2.1\bits\stl_vector.h **** 	  "std::vector must have the same value_type as its allocator");
 406:c:\tools\gcc-arm-none-eabi-10-2020-q4-major\arm-none-eabi\include\c++\10.2.1\bits\stl_vector.h **** # endif
 407:c:\tools\gcc-arm-none-eabi-10-2020-q4-major\arm-none-eabi\include\c++\10.2.1\bits\stl_vector.h **** #endif
 408:c:\tools\gcc-arm-none-eabi-10-2020-q4-major\arm-none-eabi\include\c++\10.2.1\bits\stl_vector.h **** 
 409:c:\tools\gcc-arm-none-eabi-10-2020-q4-major\arm-none-eabi\include\c++\10.2.1\bits\stl_vector.h ****       typedef _Vector_base<_Tp, _Alloc>			_Base;
 410:c:\tools\gcc-arm-none-eabi-10-2020-q4-major\arm-none-eabi\include\c++\10.2.1\bits\stl_vector.h ****       typedef typename _Base::_Tp_alloc_type		_Tp_alloc_type;
 411:c:\tools\gcc-arm-none-eabi-10-2020-q4-major\arm-none-eabi\include\c++\10.2.1\bits\stl_vector.h ****       typedef __gnu_cxx::__alloc_traits<_Tp_alloc_type>	_Alloc_traits;
 412:c:\tools\gcc-arm-none-eabi-10-2020-q4-major\arm-none-eabi\include\c++\10.2.1\bits\stl_vector.h **** 
 413:c:\tools\gcc-arm-none-eabi-10-2020-q4-major\arm-none-eabi\include\c++\10.2.1\bits\stl_vector.h ****     public:
 414:c:\tools\gcc-arm-none-eabi-10-2020-q4-major\arm-none-eabi\include\c++\10.2.1\bits\stl_vector.h ****       typedef _Tp					value_type;
 415:c:\tools\gcc-arm-none-eabi-10-2020-q4-major\arm-none-eabi\include\c++\10.2.1\bits\stl_vector.h ****       typedef typename _Base::pointer			pointer;
 416:c:\tools\gcc-arm-none-eabi-10-2020-q4-major\arm-none-eabi\include\c++\10.2.1\bits\stl_vector.h ****       typedef typename _Alloc_traits::const_pointer	const_pointer;
 417:c:\tools\gcc-arm-none-eabi-10-2020-q4-major\arm-none-eabi\include\c++\10.2.1\bits\stl_vector.h ****       typedef typename _Alloc_traits::reference		reference;
 418:c:\tools\gcc-arm-none-eabi-10-2020-q4-major\arm-none-eabi\include\c++\10.2.1\bits\stl_vector.h ****       typedef typename _Alloc_traits::const_reference	const_reference;
 419:c:\tools\gcc-arm-none-eabi-10-2020-q4-major\arm-none-eabi\include\c++\10.2.1\bits\stl_vector.h ****       typedef __gnu_cxx::__normal_iterator<pointer, vector> iterator;
ARM GAS  C:\Users\saite\AppData\Local\Temp\ccxfQYnf.s 			page 28


 420:c:\tools\gcc-arm-none-eabi-10-2020-q4-major\arm-none-eabi\include\c++\10.2.1\bits\stl_vector.h ****       typedef __gnu_cxx::__normal_iterator<const_pointer, vector>
 421:c:\tools\gcc-arm-none-eabi-10-2020-q4-major\arm-none-eabi\include\c++\10.2.1\bits\stl_vector.h ****       const_iterator;
 422:c:\tools\gcc-arm-none-eabi-10-2020-q4-major\arm-none-eabi\include\c++\10.2.1\bits\stl_vector.h ****       typedef std::reverse_iterator<const_iterator>	const_reverse_iterator;
 423:c:\tools\gcc-arm-none-eabi-10-2020-q4-major\arm-none-eabi\include\c++\10.2.1\bits\stl_vector.h ****       typedef std::reverse_iterator<iterator>		reverse_iterator;
 424:c:\tools\gcc-arm-none-eabi-10-2020-q4-major\arm-none-eabi\include\c++\10.2.1\bits\stl_vector.h ****       typedef size_t					size_type;
 425:c:\tools\gcc-arm-none-eabi-10-2020-q4-major\arm-none-eabi\include\c++\10.2.1\bits\stl_vector.h ****       typedef ptrdiff_t					difference_type;
 426:c:\tools\gcc-arm-none-eabi-10-2020-q4-major\arm-none-eabi\include\c++\10.2.1\bits\stl_vector.h ****       typedef _Alloc					allocator_type;
 427:c:\tools\gcc-arm-none-eabi-10-2020-q4-major\arm-none-eabi\include\c++\10.2.1\bits\stl_vector.h **** 
 428:c:\tools\gcc-arm-none-eabi-10-2020-q4-major\arm-none-eabi\include\c++\10.2.1\bits\stl_vector.h ****     private:
 429:c:\tools\gcc-arm-none-eabi-10-2020-q4-major\arm-none-eabi\include\c++\10.2.1\bits\stl_vector.h **** #if __cplusplus >= 201103L
 430:c:\tools\gcc-arm-none-eabi-10-2020-q4-major\arm-none-eabi\include\c++\10.2.1\bits\stl_vector.h ****       static constexpr bool
 431:c:\tools\gcc-arm-none-eabi-10-2020-q4-major\arm-none-eabi\include\c++\10.2.1\bits\stl_vector.h ****       _S_nothrow_relocate(true_type)
 432:c:\tools\gcc-arm-none-eabi-10-2020-q4-major\arm-none-eabi\include\c++\10.2.1\bits\stl_vector.h ****       {
 433:c:\tools\gcc-arm-none-eabi-10-2020-q4-major\arm-none-eabi\include\c++\10.2.1\bits\stl_vector.h **** 	return noexcept(std::__relocate_a(std::declval<pointer>(),
 434:c:\tools\gcc-arm-none-eabi-10-2020-q4-major\arm-none-eabi\include\c++\10.2.1\bits\stl_vector.h **** 					  std::declval<pointer>(),
 435:c:\tools\gcc-arm-none-eabi-10-2020-q4-major\arm-none-eabi\include\c++\10.2.1\bits\stl_vector.h **** 					  std::declval<pointer>(),
 436:c:\tools\gcc-arm-none-eabi-10-2020-q4-major\arm-none-eabi\include\c++\10.2.1\bits\stl_vector.h **** 					  std::declval<_Tp_alloc_type&>()));
 437:c:\tools\gcc-arm-none-eabi-10-2020-q4-major\arm-none-eabi\include\c++\10.2.1\bits\stl_vector.h ****       }
 438:c:\tools\gcc-arm-none-eabi-10-2020-q4-major\arm-none-eabi\include\c++\10.2.1\bits\stl_vector.h **** 
 439:c:\tools\gcc-arm-none-eabi-10-2020-q4-major\arm-none-eabi\include\c++\10.2.1\bits\stl_vector.h ****       static constexpr bool
 440:c:\tools\gcc-arm-none-eabi-10-2020-q4-major\arm-none-eabi\include\c++\10.2.1\bits\stl_vector.h ****       _S_nothrow_relocate(false_type)
 441:c:\tools\gcc-arm-none-eabi-10-2020-q4-major\arm-none-eabi\include\c++\10.2.1\bits\stl_vector.h ****       { return false; }
 442:c:\tools\gcc-arm-none-eabi-10-2020-q4-major\arm-none-eabi\include\c++\10.2.1\bits\stl_vector.h **** 
 443:c:\tools\gcc-arm-none-eabi-10-2020-q4-major\arm-none-eabi\include\c++\10.2.1\bits\stl_vector.h ****       static constexpr bool
 444:c:\tools\gcc-arm-none-eabi-10-2020-q4-major\arm-none-eabi\include\c++\10.2.1\bits\stl_vector.h ****       _S_use_relocate()
 445:c:\tools\gcc-arm-none-eabi-10-2020-q4-major\arm-none-eabi\include\c++\10.2.1\bits\stl_vector.h ****       {
 446:c:\tools\gcc-arm-none-eabi-10-2020-q4-major\arm-none-eabi\include\c++\10.2.1\bits\stl_vector.h **** 	// Instantiating std::__relocate_a might cause an error outside the
 447:c:\tools\gcc-arm-none-eabi-10-2020-q4-major\arm-none-eabi\include\c++\10.2.1\bits\stl_vector.h **** 	// immediate context (in __relocate_object_a's noexcept-specifier),
 448:c:\tools\gcc-arm-none-eabi-10-2020-q4-major\arm-none-eabi\include\c++\10.2.1\bits\stl_vector.h **** 	// so only do it if we know the type can be move-inserted into *this.
 449:c:\tools\gcc-arm-none-eabi-10-2020-q4-major\arm-none-eabi\include\c++\10.2.1\bits\stl_vector.h **** 	return _S_nothrow_relocate(__is_move_insertable<_Tp_alloc_type>{});
 450:c:\tools\gcc-arm-none-eabi-10-2020-q4-major\arm-none-eabi\include\c++\10.2.1\bits\stl_vector.h ****       }
 451:c:\tools\gcc-arm-none-eabi-10-2020-q4-major\arm-none-eabi\include\c++\10.2.1\bits\stl_vector.h **** 
 452:c:\tools\gcc-arm-none-eabi-10-2020-q4-major\arm-none-eabi\include\c++\10.2.1\bits\stl_vector.h ****       static pointer
 453:c:\tools\gcc-arm-none-eabi-10-2020-q4-major\arm-none-eabi\include\c++\10.2.1\bits\stl_vector.h ****       _S_do_relocate(pointer __first, pointer __last, pointer __result,
 454:c:\tools\gcc-arm-none-eabi-10-2020-q4-major\arm-none-eabi\include\c++\10.2.1\bits\stl_vector.h **** 		     _Tp_alloc_type& __alloc, true_type) noexcept
 455:c:\tools\gcc-arm-none-eabi-10-2020-q4-major\arm-none-eabi\include\c++\10.2.1\bits\stl_vector.h ****       {
 456:c:\tools\gcc-arm-none-eabi-10-2020-q4-major\arm-none-eabi\include\c++\10.2.1\bits\stl_vector.h **** 	return std::__relocate_a(__first, __last, __result, __alloc);
 457:c:\tools\gcc-arm-none-eabi-10-2020-q4-major\arm-none-eabi\include\c++\10.2.1\bits\stl_vector.h ****       }
 458:c:\tools\gcc-arm-none-eabi-10-2020-q4-major\arm-none-eabi\include\c++\10.2.1\bits\stl_vector.h **** 
 459:c:\tools\gcc-arm-none-eabi-10-2020-q4-major\arm-none-eabi\include\c++\10.2.1\bits\stl_vector.h ****       static pointer
 460:c:\tools\gcc-arm-none-eabi-10-2020-q4-major\arm-none-eabi\include\c++\10.2.1\bits\stl_vector.h ****       _S_do_relocate(pointer, pointer, pointer __result,
 461:c:\tools\gcc-arm-none-eabi-10-2020-q4-major\arm-none-eabi\include\c++\10.2.1\bits\stl_vector.h **** 		     _Tp_alloc_type&, false_type) noexcept
 462:c:\tools\gcc-arm-none-eabi-10-2020-q4-major\arm-none-eabi\include\c++\10.2.1\bits\stl_vector.h ****       { return __result; }
 463:c:\tools\gcc-arm-none-eabi-10-2020-q4-major\arm-none-eabi\include\c++\10.2.1\bits\stl_vector.h **** 
 464:c:\tools\gcc-arm-none-eabi-10-2020-q4-major\arm-none-eabi\include\c++\10.2.1\bits\stl_vector.h ****       static pointer
 465:c:\tools\gcc-arm-none-eabi-10-2020-q4-major\arm-none-eabi\include\c++\10.2.1\bits\stl_vector.h ****       _S_relocate(pointer __first, pointer __last, pointer __result,
 466:c:\tools\gcc-arm-none-eabi-10-2020-q4-major\arm-none-eabi\include\c++\10.2.1\bits\stl_vector.h **** 		  _Tp_alloc_type& __alloc) noexcept
 467:c:\tools\gcc-arm-none-eabi-10-2020-q4-major\arm-none-eabi\include\c++\10.2.1\bits\stl_vector.h ****       {
 468:c:\tools\gcc-arm-none-eabi-10-2020-q4-major\arm-none-eabi\include\c++\10.2.1\bits\stl_vector.h **** 	using __do_it = __bool_constant<_S_use_relocate()>;
 469:c:\tools\gcc-arm-none-eabi-10-2020-q4-major\arm-none-eabi\include\c++\10.2.1\bits\stl_vector.h **** 	return _S_do_relocate(__first, __last, __result, __alloc, __do_it{});
 470:c:\tools\gcc-arm-none-eabi-10-2020-q4-major\arm-none-eabi\include\c++\10.2.1\bits\stl_vector.h ****       }
 471:c:\tools\gcc-arm-none-eabi-10-2020-q4-major\arm-none-eabi\include\c++\10.2.1\bits\stl_vector.h **** #endif // C++11
 472:c:\tools\gcc-arm-none-eabi-10-2020-q4-major\arm-none-eabi\include\c++\10.2.1\bits\stl_vector.h **** 
 473:c:\tools\gcc-arm-none-eabi-10-2020-q4-major\arm-none-eabi\include\c++\10.2.1\bits\stl_vector.h ****     protected:
 474:c:\tools\gcc-arm-none-eabi-10-2020-q4-major\arm-none-eabi\include\c++\10.2.1\bits\stl_vector.h ****       using _Base::_M_allocate;
 475:c:\tools\gcc-arm-none-eabi-10-2020-q4-major\arm-none-eabi\include\c++\10.2.1\bits\stl_vector.h ****       using _Base::_M_deallocate;
 476:c:\tools\gcc-arm-none-eabi-10-2020-q4-major\arm-none-eabi\include\c++\10.2.1\bits\stl_vector.h ****       using _Base::_M_impl;
ARM GAS  C:\Users\saite\AppData\Local\Temp\ccxfQYnf.s 			page 29


 477:c:\tools\gcc-arm-none-eabi-10-2020-q4-major\arm-none-eabi\include\c++\10.2.1\bits\stl_vector.h ****       using _Base::_M_get_Tp_allocator;
 478:c:\tools\gcc-arm-none-eabi-10-2020-q4-major\arm-none-eabi\include\c++\10.2.1\bits\stl_vector.h **** 
 479:c:\tools\gcc-arm-none-eabi-10-2020-q4-major\arm-none-eabi\include\c++\10.2.1\bits\stl_vector.h ****     public:
 480:c:\tools\gcc-arm-none-eabi-10-2020-q4-major\arm-none-eabi\include\c++\10.2.1\bits\stl_vector.h ****       // [23.2.4.1] construct/copy/destroy
 481:c:\tools\gcc-arm-none-eabi-10-2020-q4-major\arm-none-eabi\include\c++\10.2.1\bits\stl_vector.h ****       // (assign() and get_allocator() are also listed in this section)
 482:c:\tools\gcc-arm-none-eabi-10-2020-q4-major\arm-none-eabi\include\c++\10.2.1\bits\stl_vector.h **** 
 483:c:\tools\gcc-arm-none-eabi-10-2020-q4-major\arm-none-eabi\include\c++\10.2.1\bits\stl_vector.h ****       /**
 484:c:\tools\gcc-arm-none-eabi-10-2020-q4-major\arm-none-eabi\include\c++\10.2.1\bits\stl_vector.h ****        *  @brief  Creates a %vector with no elements.
 485:c:\tools\gcc-arm-none-eabi-10-2020-q4-major\arm-none-eabi\include\c++\10.2.1\bits\stl_vector.h ****        */
 486:c:\tools\gcc-arm-none-eabi-10-2020-q4-major\arm-none-eabi\include\c++\10.2.1\bits\stl_vector.h **** #if __cplusplus >= 201103L
 487:c:\tools\gcc-arm-none-eabi-10-2020-q4-major\arm-none-eabi\include\c++\10.2.1\bits\stl_vector.h ****       vector() = default;
 488:c:\tools\gcc-arm-none-eabi-10-2020-q4-major\arm-none-eabi\include\c++\10.2.1\bits\stl_vector.h **** #else
 489:c:\tools\gcc-arm-none-eabi-10-2020-q4-major\arm-none-eabi\include\c++\10.2.1\bits\stl_vector.h ****       vector() { }
 490:c:\tools\gcc-arm-none-eabi-10-2020-q4-major\arm-none-eabi\include\c++\10.2.1\bits\stl_vector.h **** #endif
 491:c:\tools\gcc-arm-none-eabi-10-2020-q4-major\arm-none-eabi\include\c++\10.2.1\bits\stl_vector.h **** 
 492:c:\tools\gcc-arm-none-eabi-10-2020-q4-major\arm-none-eabi\include\c++\10.2.1\bits\stl_vector.h ****       /**
 493:c:\tools\gcc-arm-none-eabi-10-2020-q4-major\arm-none-eabi\include\c++\10.2.1\bits\stl_vector.h ****        *  @brief  Creates a %vector with no elements.
 494:c:\tools\gcc-arm-none-eabi-10-2020-q4-major\arm-none-eabi\include\c++\10.2.1\bits\stl_vector.h ****        *  @param  __a  An allocator object.
 495:c:\tools\gcc-arm-none-eabi-10-2020-q4-major\arm-none-eabi\include\c++\10.2.1\bits\stl_vector.h ****        */
 496:c:\tools\gcc-arm-none-eabi-10-2020-q4-major\arm-none-eabi\include\c++\10.2.1\bits\stl_vector.h ****       explicit
 497:c:\tools\gcc-arm-none-eabi-10-2020-q4-major\arm-none-eabi\include\c++\10.2.1\bits\stl_vector.h ****       vector(const allocator_type& __a) _GLIBCXX_NOEXCEPT
 498:c:\tools\gcc-arm-none-eabi-10-2020-q4-major\arm-none-eabi\include\c++\10.2.1\bits\stl_vector.h ****       : _Base(__a) { }
 499:c:\tools\gcc-arm-none-eabi-10-2020-q4-major\arm-none-eabi\include\c++\10.2.1\bits\stl_vector.h **** 
 500:c:\tools\gcc-arm-none-eabi-10-2020-q4-major\arm-none-eabi\include\c++\10.2.1\bits\stl_vector.h **** #if __cplusplus >= 201103L
 501:c:\tools\gcc-arm-none-eabi-10-2020-q4-major\arm-none-eabi\include\c++\10.2.1\bits\stl_vector.h ****       /**
 502:c:\tools\gcc-arm-none-eabi-10-2020-q4-major\arm-none-eabi\include\c++\10.2.1\bits\stl_vector.h ****        *  @brief  Creates a %vector with default constructed elements.
 503:c:\tools\gcc-arm-none-eabi-10-2020-q4-major\arm-none-eabi\include\c++\10.2.1\bits\stl_vector.h ****        *  @param  __n  The number of elements to initially create.
 504:c:\tools\gcc-arm-none-eabi-10-2020-q4-major\arm-none-eabi\include\c++\10.2.1\bits\stl_vector.h ****        *  @param  __a  An allocator.
 505:c:\tools\gcc-arm-none-eabi-10-2020-q4-major\arm-none-eabi\include\c++\10.2.1\bits\stl_vector.h ****        *
 506:c:\tools\gcc-arm-none-eabi-10-2020-q4-major\arm-none-eabi\include\c++\10.2.1\bits\stl_vector.h ****        *  This constructor fills the %vector with @a __n default
 507:c:\tools\gcc-arm-none-eabi-10-2020-q4-major\arm-none-eabi\include\c++\10.2.1\bits\stl_vector.h ****        *  constructed elements.
 508:c:\tools\gcc-arm-none-eabi-10-2020-q4-major\arm-none-eabi\include\c++\10.2.1\bits\stl_vector.h ****        */
 509:c:\tools\gcc-arm-none-eabi-10-2020-q4-major\arm-none-eabi\include\c++\10.2.1\bits\stl_vector.h ****       explicit
 510:c:\tools\gcc-arm-none-eabi-10-2020-q4-major\arm-none-eabi\include\c++\10.2.1\bits\stl_vector.h ****       vector(size_type __n, const allocator_type& __a = allocator_type())
 511:c:\tools\gcc-arm-none-eabi-10-2020-q4-major\arm-none-eabi\include\c++\10.2.1\bits\stl_vector.h ****       : _Base(_S_check_init_len(__n, __a), __a)
 512:c:\tools\gcc-arm-none-eabi-10-2020-q4-major\arm-none-eabi\include\c++\10.2.1\bits\stl_vector.h ****       { _M_default_initialize(__n); }
 513:c:\tools\gcc-arm-none-eabi-10-2020-q4-major\arm-none-eabi\include\c++\10.2.1\bits\stl_vector.h **** 
 514:c:\tools\gcc-arm-none-eabi-10-2020-q4-major\arm-none-eabi\include\c++\10.2.1\bits\stl_vector.h ****       /**
 515:c:\tools\gcc-arm-none-eabi-10-2020-q4-major\arm-none-eabi\include\c++\10.2.1\bits\stl_vector.h ****        *  @brief  Creates a %vector with copies of an exemplar element.
 516:c:\tools\gcc-arm-none-eabi-10-2020-q4-major\arm-none-eabi\include\c++\10.2.1\bits\stl_vector.h ****        *  @param  __n  The number of elements to initially create.
 517:c:\tools\gcc-arm-none-eabi-10-2020-q4-major\arm-none-eabi\include\c++\10.2.1\bits\stl_vector.h ****        *  @param  __value  An element to copy.
 518:c:\tools\gcc-arm-none-eabi-10-2020-q4-major\arm-none-eabi\include\c++\10.2.1\bits\stl_vector.h ****        *  @param  __a  An allocator.
 519:c:\tools\gcc-arm-none-eabi-10-2020-q4-major\arm-none-eabi\include\c++\10.2.1\bits\stl_vector.h ****        *
 520:c:\tools\gcc-arm-none-eabi-10-2020-q4-major\arm-none-eabi\include\c++\10.2.1\bits\stl_vector.h ****        *  This constructor fills the %vector with @a __n copies of @a __value.
 521:c:\tools\gcc-arm-none-eabi-10-2020-q4-major\arm-none-eabi\include\c++\10.2.1\bits\stl_vector.h ****        */
 522:c:\tools\gcc-arm-none-eabi-10-2020-q4-major\arm-none-eabi\include\c++\10.2.1\bits\stl_vector.h ****       vector(size_type __n, const value_type& __value,
 523:c:\tools\gcc-arm-none-eabi-10-2020-q4-major\arm-none-eabi\include\c++\10.2.1\bits\stl_vector.h **** 	     const allocator_type& __a = allocator_type())
 524:c:\tools\gcc-arm-none-eabi-10-2020-q4-major\arm-none-eabi\include\c++\10.2.1\bits\stl_vector.h ****       : _Base(_S_check_init_len(__n, __a), __a)
 525:c:\tools\gcc-arm-none-eabi-10-2020-q4-major\arm-none-eabi\include\c++\10.2.1\bits\stl_vector.h ****       { _M_fill_initialize(__n, __value); }
 526:c:\tools\gcc-arm-none-eabi-10-2020-q4-major\arm-none-eabi\include\c++\10.2.1\bits\stl_vector.h **** #else
 527:c:\tools\gcc-arm-none-eabi-10-2020-q4-major\arm-none-eabi\include\c++\10.2.1\bits\stl_vector.h ****       /**
 528:c:\tools\gcc-arm-none-eabi-10-2020-q4-major\arm-none-eabi\include\c++\10.2.1\bits\stl_vector.h ****        *  @brief  Creates a %vector with copies of an exemplar element.
 529:c:\tools\gcc-arm-none-eabi-10-2020-q4-major\arm-none-eabi\include\c++\10.2.1\bits\stl_vector.h ****        *  @param  __n  The number of elements to initially create.
 530:c:\tools\gcc-arm-none-eabi-10-2020-q4-major\arm-none-eabi\include\c++\10.2.1\bits\stl_vector.h ****        *  @param  __value  An element to copy.
 531:c:\tools\gcc-arm-none-eabi-10-2020-q4-major\arm-none-eabi\include\c++\10.2.1\bits\stl_vector.h ****        *  @param  __a  An allocator.
 532:c:\tools\gcc-arm-none-eabi-10-2020-q4-major\arm-none-eabi\include\c++\10.2.1\bits\stl_vector.h ****        *
 533:c:\tools\gcc-arm-none-eabi-10-2020-q4-major\arm-none-eabi\include\c++\10.2.1\bits\stl_vector.h ****        *  This constructor fills the %vector with @a __n copies of @a __value.
ARM GAS  C:\Users\saite\AppData\Local\Temp\ccxfQYnf.s 			page 30


 534:c:\tools\gcc-arm-none-eabi-10-2020-q4-major\arm-none-eabi\include\c++\10.2.1\bits\stl_vector.h ****        */
 535:c:\tools\gcc-arm-none-eabi-10-2020-q4-major\arm-none-eabi\include\c++\10.2.1\bits\stl_vector.h ****       explicit
 536:c:\tools\gcc-arm-none-eabi-10-2020-q4-major\arm-none-eabi\include\c++\10.2.1\bits\stl_vector.h ****       vector(size_type __n, const value_type& __value = value_type(),
 537:c:\tools\gcc-arm-none-eabi-10-2020-q4-major\arm-none-eabi\include\c++\10.2.1\bits\stl_vector.h **** 	     const allocator_type& __a = allocator_type())
 538:c:\tools\gcc-arm-none-eabi-10-2020-q4-major\arm-none-eabi\include\c++\10.2.1\bits\stl_vector.h ****       : _Base(_S_check_init_len(__n, __a), __a)
 539:c:\tools\gcc-arm-none-eabi-10-2020-q4-major\arm-none-eabi\include\c++\10.2.1\bits\stl_vector.h ****       { _M_fill_initialize(__n, __value); }
 540:c:\tools\gcc-arm-none-eabi-10-2020-q4-major\arm-none-eabi\include\c++\10.2.1\bits\stl_vector.h **** #endif
 541:c:\tools\gcc-arm-none-eabi-10-2020-q4-major\arm-none-eabi\include\c++\10.2.1\bits\stl_vector.h **** 
 542:c:\tools\gcc-arm-none-eabi-10-2020-q4-major\arm-none-eabi\include\c++\10.2.1\bits\stl_vector.h ****       /**
 543:c:\tools\gcc-arm-none-eabi-10-2020-q4-major\arm-none-eabi\include\c++\10.2.1\bits\stl_vector.h ****        *  @brief  %Vector copy constructor.
 544:c:\tools\gcc-arm-none-eabi-10-2020-q4-major\arm-none-eabi\include\c++\10.2.1\bits\stl_vector.h ****        *  @param  __x  A %vector of identical element and allocator types.
 545:c:\tools\gcc-arm-none-eabi-10-2020-q4-major\arm-none-eabi\include\c++\10.2.1\bits\stl_vector.h ****        *
 546:c:\tools\gcc-arm-none-eabi-10-2020-q4-major\arm-none-eabi\include\c++\10.2.1\bits\stl_vector.h ****        *  All the elements of @a __x are copied, but any unused capacity in
 547:c:\tools\gcc-arm-none-eabi-10-2020-q4-major\arm-none-eabi\include\c++\10.2.1\bits\stl_vector.h ****        *  @a __x  will not be copied
 548:c:\tools\gcc-arm-none-eabi-10-2020-q4-major\arm-none-eabi\include\c++\10.2.1\bits\stl_vector.h ****        *  (i.e. capacity() == size() in the new %vector).
 549:c:\tools\gcc-arm-none-eabi-10-2020-q4-major\arm-none-eabi\include\c++\10.2.1\bits\stl_vector.h ****        *
 550:c:\tools\gcc-arm-none-eabi-10-2020-q4-major\arm-none-eabi\include\c++\10.2.1\bits\stl_vector.h ****        *  The newly-created %vector uses a copy of the allocator object used
 551:c:\tools\gcc-arm-none-eabi-10-2020-q4-major\arm-none-eabi\include\c++\10.2.1\bits\stl_vector.h ****        *  by @a __x (unless the allocator traits dictate a different object).
 552:c:\tools\gcc-arm-none-eabi-10-2020-q4-major\arm-none-eabi\include\c++\10.2.1\bits\stl_vector.h ****        */
 553:c:\tools\gcc-arm-none-eabi-10-2020-q4-major\arm-none-eabi\include\c++\10.2.1\bits\stl_vector.h ****       vector(const vector& __x)
 554:c:\tools\gcc-arm-none-eabi-10-2020-q4-major\arm-none-eabi\include\c++\10.2.1\bits\stl_vector.h ****       : _Base(__x.size(),
 555:c:\tools\gcc-arm-none-eabi-10-2020-q4-major\arm-none-eabi\include\c++\10.2.1\bits\stl_vector.h **** 	_Alloc_traits::_S_select_on_copy(__x._M_get_Tp_allocator()))
 556:c:\tools\gcc-arm-none-eabi-10-2020-q4-major\arm-none-eabi\include\c++\10.2.1\bits\stl_vector.h ****       {
 557:c:\tools\gcc-arm-none-eabi-10-2020-q4-major\arm-none-eabi\include\c++\10.2.1\bits\stl_vector.h **** 	this->_M_impl._M_finish =
 558:c:\tools\gcc-arm-none-eabi-10-2020-q4-major\arm-none-eabi\include\c++\10.2.1\bits\stl_vector.h **** 	  std::__uninitialized_copy_a(__x.begin(), __x.end(),
 559:c:\tools\gcc-arm-none-eabi-10-2020-q4-major\arm-none-eabi\include\c++\10.2.1\bits\stl_vector.h **** 				      this->_M_impl._M_start,
 560:c:\tools\gcc-arm-none-eabi-10-2020-q4-major\arm-none-eabi\include\c++\10.2.1\bits\stl_vector.h **** 				      _M_get_Tp_allocator());
 561:c:\tools\gcc-arm-none-eabi-10-2020-q4-major\arm-none-eabi\include\c++\10.2.1\bits\stl_vector.h ****       }
 562:c:\tools\gcc-arm-none-eabi-10-2020-q4-major\arm-none-eabi\include\c++\10.2.1\bits\stl_vector.h **** 
 563:c:\tools\gcc-arm-none-eabi-10-2020-q4-major\arm-none-eabi\include\c++\10.2.1\bits\stl_vector.h **** #if __cplusplus >= 201103L
 564:c:\tools\gcc-arm-none-eabi-10-2020-q4-major\arm-none-eabi\include\c++\10.2.1\bits\stl_vector.h ****       /**
 565:c:\tools\gcc-arm-none-eabi-10-2020-q4-major\arm-none-eabi\include\c++\10.2.1\bits\stl_vector.h ****        *  @brief  %Vector move constructor.
 566:c:\tools\gcc-arm-none-eabi-10-2020-q4-major\arm-none-eabi\include\c++\10.2.1\bits\stl_vector.h ****        *
 567:c:\tools\gcc-arm-none-eabi-10-2020-q4-major\arm-none-eabi\include\c++\10.2.1\bits\stl_vector.h ****        *  The newly-created %vector contains the exact contents of the
 568:c:\tools\gcc-arm-none-eabi-10-2020-q4-major\arm-none-eabi\include\c++\10.2.1\bits\stl_vector.h ****        *  moved instance.
 569:c:\tools\gcc-arm-none-eabi-10-2020-q4-major\arm-none-eabi\include\c++\10.2.1\bits\stl_vector.h ****        *  The contents of the moved instance are a valid, but unspecified
 570:c:\tools\gcc-arm-none-eabi-10-2020-q4-major\arm-none-eabi\include\c++\10.2.1\bits\stl_vector.h ****        *  %vector.
 571:c:\tools\gcc-arm-none-eabi-10-2020-q4-major\arm-none-eabi\include\c++\10.2.1\bits\stl_vector.h ****        */
 572:c:\tools\gcc-arm-none-eabi-10-2020-q4-major\arm-none-eabi\include\c++\10.2.1\bits\stl_vector.h ****       vector(vector&&) noexcept = default;
 573:c:\tools\gcc-arm-none-eabi-10-2020-q4-major\arm-none-eabi\include\c++\10.2.1\bits\stl_vector.h **** 
 574:c:\tools\gcc-arm-none-eabi-10-2020-q4-major\arm-none-eabi\include\c++\10.2.1\bits\stl_vector.h ****       /// Copy constructor with alternative allocator
 575:c:\tools\gcc-arm-none-eabi-10-2020-q4-major\arm-none-eabi\include\c++\10.2.1\bits\stl_vector.h ****       vector(const vector& __x, const allocator_type& __a)
 576:c:\tools\gcc-arm-none-eabi-10-2020-q4-major\arm-none-eabi\include\c++\10.2.1\bits\stl_vector.h ****       : _Base(__x.size(), __a)
 577:c:\tools\gcc-arm-none-eabi-10-2020-q4-major\arm-none-eabi\include\c++\10.2.1\bits\stl_vector.h ****       {
 578:c:\tools\gcc-arm-none-eabi-10-2020-q4-major\arm-none-eabi\include\c++\10.2.1\bits\stl_vector.h **** 	this->_M_impl._M_finish =
 579:c:\tools\gcc-arm-none-eabi-10-2020-q4-major\arm-none-eabi\include\c++\10.2.1\bits\stl_vector.h **** 	  std::__uninitialized_copy_a(__x.begin(), __x.end(),
 580:c:\tools\gcc-arm-none-eabi-10-2020-q4-major\arm-none-eabi\include\c++\10.2.1\bits\stl_vector.h **** 				      this->_M_impl._M_start,
 581:c:\tools\gcc-arm-none-eabi-10-2020-q4-major\arm-none-eabi\include\c++\10.2.1\bits\stl_vector.h **** 				      _M_get_Tp_allocator());
 582:c:\tools\gcc-arm-none-eabi-10-2020-q4-major\arm-none-eabi\include\c++\10.2.1\bits\stl_vector.h ****       }
 583:c:\tools\gcc-arm-none-eabi-10-2020-q4-major\arm-none-eabi\include\c++\10.2.1\bits\stl_vector.h **** 
 584:c:\tools\gcc-arm-none-eabi-10-2020-q4-major\arm-none-eabi\include\c++\10.2.1\bits\stl_vector.h ****     private:
 585:c:\tools\gcc-arm-none-eabi-10-2020-q4-major\arm-none-eabi\include\c++\10.2.1\bits\stl_vector.h ****       vector(vector&& __rv, const allocator_type& __m, true_type) noexcept
 586:c:\tools\gcc-arm-none-eabi-10-2020-q4-major\arm-none-eabi\include\c++\10.2.1\bits\stl_vector.h ****       : _Base(__m, std::move(__rv))
 587:c:\tools\gcc-arm-none-eabi-10-2020-q4-major\arm-none-eabi\include\c++\10.2.1\bits\stl_vector.h ****       { }
 588:c:\tools\gcc-arm-none-eabi-10-2020-q4-major\arm-none-eabi\include\c++\10.2.1\bits\stl_vector.h **** 
 589:c:\tools\gcc-arm-none-eabi-10-2020-q4-major\arm-none-eabi\include\c++\10.2.1\bits\stl_vector.h ****       vector(vector&& __rv, const allocator_type& __m, false_type)
 590:c:\tools\gcc-arm-none-eabi-10-2020-q4-major\arm-none-eabi\include\c++\10.2.1\bits\stl_vector.h ****       : _Base(__m)
ARM GAS  C:\Users\saite\AppData\Local\Temp\ccxfQYnf.s 			page 31


 591:c:\tools\gcc-arm-none-eabi-10-2020-q4-major\arm-none-eabi\include\c++\10.2.1\bits\stl_vector.h ****       {
 592:c:\tools\gcc-arm-none-eabi-10-2020-q4-major\arm-none-eabi\include\c++\10.2.1\bits\stl_vector.h **** 	if (__rv.get_allocator() == __m)
 593:c:\tools\gcc-arm-none-eabi-10-2020-q4-major\arm-none-eabi\include\c++\10.2.1\bits\stl_vector.h **** 	  this->_M_impl._M_swap_data(__rv._M_impl);
 594:c:\tools\gcc-arm-none-eabi-10-2020-q4-major\arm-none-eabi\include\c++\10.2.1\bits\stl_vector.h **** 	else if (!__rv.empty())
 595:c:\tools\gcc-arm-none-eabi-10-2020-q4-major\arm-none-eabi\include\c++\10.2.1\bits\stl_vector.h **** 	  {
 596:c:\tools\gcc-arm-none-eabi-10-2020-q4-major\arm-none-eabi\include\c++\10.2.1\bits\stl_vector.h **** 	    this->_M_create_storage(__rv.size());
 597:c:\tools\gcc-arm-none-eabi-10-2020-q4-major\arm-none-eabi\include\c++\10.2.1\bits\stl_vector.h **** 	    this->_M_impl._M_finish =
 598:c:\tools\gcc-arm-none-eabi-10-2020-q4-major\arm-none-eabi\include\c++\10.2.1\bits\stl_vector.h **** 	      std::__uninitialized_move_a(__rv.begin(), __rv.end(),
 599:c:\tools\gcc-arm-none-eabi-10-2020-q4-major\arm-none-eabi\include\c++\10.2.1\bits\stl_vector.h **** 					  this->_M_impl._M_start,
 600:c:\tools\gcc-arm-none-eabi-10-2020-q4-major\arm-none-eabi\include\c++\10.2.1\bits\stl_vector.h **** 					  _M_get_Tp_allocator());
 601:c:\tools\gcc-arm-none-eabi-10-2020-q4-major\arm-none-eabi\include\c++\10.2.1\bits\stl_vector.h **** 	    __rv.clear();
 602:c:\tools\gcc-arm-none-eabi-10-2020-q4-major\arm-none-eabi\include\c++\10.2.1\bits\stl_vector.h **** 	  }
 603:c:\tools\gcc-arm-none-eabi-10-2020-q4-major\arm-none-eabi\include\c++\10.2.1\bits\stl_vector.h ****       }
 604:c:\tools\gcc-arm-none-eabi-10-2020-q4-major\arm-none-eabi\include\c++\10.2.1\bits\stl_vector.h **** 
 605:c:\tools\gcc-arm-none-eabi-10-2020-q4-major\arm-none-eabi\include\c++\10.2.1\bits\stl_vector.h ****     public:
 606:c:\tools\gcc-arm-none-eabi-10-2020-q4-major\arm-none-eabi\include\c++\10.2.1\bits\stl_vector.h ****       /// Move constructor with alternative allocator
 607:c:\tools\gcc-arm-none-eabi-10-2020-q4-major\arm-none-eabi\include\c++\10.2.1\bits\stl_vector.h ****       vector(vector&& __rv, const allocator_type& __m)
 608:c:\tools\gcc-arm-none-eabi-10-2020-q4-major\arm-none-eabi\include\c++\10.2.1\bits\stl_vector.h ****       noexcept( noexcept(
 609:c:\tools\gcc-arm-none-eabi-10-2020-q4-major\arm-none-eabi\include\c++\10.2.1\bits\stl_vector.h **** 	vector(std::declval<vector&&>(), std::declval<const allocator_type&>(),
 610:c:\tools\gcc-arm-none-eabi-10-2020-q4-major\arm-none-eabi\include\c++\10.2.1\bits\stl_vector.h **** 	       std::declval<typename _Alloc_traits::is_always_equal>())) )
 611:c:\tools\gcc-arm-none-eabi-10-2020-q4-major\arm-none-eabi\include\c++\10.2.1\bits\stl_vector.h ****       : vector(std::move(__rv), __m, typename _Alloc_traits::is_always_equal{})
 612:c:\tools\gcc-arm-none-eabi-10-2020-q4-major\arm-none-eabi\include\c++\10.2.1\bits\stl_vector.h ****       { }
 613:c:\tools\gcc-arm-none-eabi-10-2020-q4-major\arm-none-eabi\include\c++\10.2.1\bits\stl_vector.h **** 
 614:c:\tools\gcc-arm-none-eabi-10-2020-q4-major\arm-none-eabi\include\c++\10.2.1\bits\stl_vector.h ****       /**
 615:c:\tools\gcc-arm-none-eabi-10-2020-q4-major\arm-none-eabi\include\c++\10.2.1\bits\stl_vector.h ****        *  @brief  Builds a %vector from an initializer list.
 616:c:\tools\gcc-arm-none-eabi-10-2020-q4-major\arm-none-eabi\include\c++\10.2.1\bits\stl_vector.h ****        *  @param  __l  An initializer_list.
 617:c:\tools\gcc-arm-none-eabi-10-2020-q4-major\arm-none-eabi\include\c++\10.2.1\bits\stl_vector.h ****        *  @param  __a  An allocator.
 618:c:\tools\gcc-arm-none-eabi-10-2020-q4-major\arm-none-eabi\include\c++\10.2.1\bits\stl_vector.h ****        *
 619:c:\tools\gcc-arm-none-eabi-10-2020-q4-major\arm-none-eabi\include\c++\10.2.1\bits\stl_vector.h ****        *  Create a %vector consisting of copies of the elements in the
 620:c:\tools\gcc-arm-none-eabi-10-2020-q4-major\arm-none-eabi\include\c++\10.2.1\bits\stl_vector.h ****        *  initializer_list @a __l.
 621:c:\tools\gcc-arm-none-eabi-10-2020-q4-major\arm-none-eabi\include\c++\10.2.1\bits\stl_vector.h ****        *
 622:c:\tools\gcc-arm-none-eabi-10-2020-q4-major\arm-none-eabi\include\c++\10.2.1\bits\stl_vector.h ****        *  This will call the element type's copy constructor N times
 623:c:\tools\gcc-arm-none-eabi-10-2020-q4-major\arm-none-eabi\include\c++\10.2.1\bits\stl_vector.h ****        *  (where N is @a __l.size()) and do no memory reallocation.
 624:c:\tools\gcc-arm-none-eabi-10-2020-q4-major\arm-none-eabi\include\c++\10.2.1\bits\stl_vector.h ****        */
 625:c:\tools\gcc-arm-none-eabi-10-2020-q4-major\arm-none-eabi\include\c++\10.2.1\bits\stl_vector.h ****       vector(initializer_list<value_type> __l,
 626:c:\tools\gcc-arm-none-eabi-10-2020-q4-major\arm-none-eabi\include\c++\10.2.1\bits\stl_vector.h **** 	     const allocator_type& __a = allocator_type())
 627:c:\tools\gcc-arm-none-eabi-10-2020-q4-major\arm-none-eabi\include\c++\10.2.1\bits\stl_vector.h ****       : _Base(__a)
 628:c:\tools\gcc-arm-none-eabi-10-2020-q4-major\arm-none-eabi\include\c++\10.2.1\bits\stl_vector.h ****       {
 629:c:\tools\gcc-arm-none-eabi-10-2020-q4-major\arm-none-eabi\include\c++\10.2.1\bits\stl_vector.h **** 	_M_range_initialize(__l.begin(), __l.end(),
 630:c:\tools\gcc-arm-none-eabi-10-2020-q4-major\arm-none-eabi\include\c++\10.2.1\bits\stl_vector.h **** 			    random_access_iterator_tag());
 631:c:\tools\gcc-arm-none-eabi-10-2020-q4-major\arm-none-eabi\include\c++\10.2.1\bits\stl_vector.h ****       }
 632:c:\tools\gcc-arm-none-eabi-10-2020-q4-major\arm-none-eabi\include\c++\10.2.1\bits\stl_vector.h **** #endif
 633:c:\tools\gcc-arm-none-eabi-10-2020-q4-major\arm-none-eabi\include\c++\10.2.1\bits\stl_vector.h **** 
 634:c:\tools\gcc-arm-none-eabi-10-2020-q4-major\arm-none-eabi\include\c++\10.2.1\bits\stl_vector.h ****       /**
 635:c:\tools\gcc-arm-none-eabi-10-2020-q4-major\arm-none-eabi\include\c++\10.2.1\bits\stl_vector.h ****        *  @brief  Builds a %vector from a range.
 636:c:\tools\gcc-arm-none-eabi-10-2020-q4-major\arm-none-eabi\include\c++\10.2.1\bits\stl_vector.h ****        *  @param  __first  An input iterator.
 637:c:\tools\gcc-arm-none-eabi-10-2020-q4-major\arm-none-eabi\include\c++\10.2.1\bits\stl_vector.h ****        *  @param  __last  An input iterator.
 638:c:\tools\gcc-arm-none-eabi-10-2020-q4-major\arm-none-eabi\include\c++\10.2.1\bits\stl_vector.h ****        *  @param  __a  An allocator.
 639:c:\tools\gcc-arm-none-eabi-10-2020-q4-major\arm-none-eabi\include\c++\10.2.1\bits\stl_vector.h ****        *
 640:c:\tools\gcc-arm-none-eabi-10-2020-q4-major\arm-none-eabi\include\c++\10.2.1\bits\stl_vector.h ****        *  Create a %vector consisting of copies of the elements from
 641:c:\tools\gcc-arm-none-eabi-10-2020-q4-major\arm-none-eabi\include\c++\10.2.1\bits\stl_vector.h ****        *  [first,last).
 642:c:\tools\gcc-arm-none-eabi-10-2020-q4-major\arm-none-eabi\include\c++\10.2.1\bits\stl_vector.h ****        *
 643:c:\tools\gcc-arm-none-eabi-10-2020-q4-major\arm-none-eabi\include\c++\10.2.1\bits\stl_vector.h ****        *  If the iterators are forward, bidirectional, or
 644:c:\tools\gcc-arm-none-eabi-10-2020-q4-major\arm-none-eabi\include\c++\10.2.1\bits\stl_vector.h ****        *  random-access, then this will call the elements' copy
 645:c:\tools\gcc-arm-none-eabi-10-2020-q4-major\arm-none-eabi\include\c++\10.2.1\bits\stl_vector.h ****        *  constructor N times (where N is distance(first,last)) and do
 646:c:\tools\gcc-arm-none-eabi-10-2020-q4-major\arm-none-eabi\include\c++\10.2.1\bits\stl_vector.h ****        *  no memory reallocation.  But if only input iterators are
 647:c:\tools\gcc-arm-none-eabi-10-2020-q4-major\arm-none-eabi\include\c++\10.2.1\bits\stl_vector.h ****        *  used, then this will do at most 2N calls to the copy
ARM GAS  C:\Users\saite\AppData\Local\Temp\ccxfQYnf.s 			page 32


 648:c:\tools\gcc-arm-none-eabi-10-2020-q4-major\arm-none-eabi\include\c++\10.2.1\bits\stl_vector.h ****        *  constructor, and logN memory reallocations.
 649:c:\tools\gcc-arm-none-eabi-10-2020-q4-major\arm-none-eabi\include\c++\10.2.1\bits\stl_vector.h ****        */
 650:c:\tools\gcc-arm-none-eabi-10-2020-q4-major\arm-none-eabi\include\c++\10.2.1\bits\stl_vector.h **** #if __cplusplus >= 201103L
 651:c:\tools\gcc-arm-none-eabi-10-2020-q4-major\arm-none-eabi\include\c++\10.2.1\bits\stl_vector.h ****       template<typename _InputIterator,
 652:c:\tools\gcc-arm-none-eabi-10-2020-q4-major\arm-none-eabi\include\c++\10.2.1\bits\stl_vector.h **** 	       typename = std::_RequireInputIter<_InputIterator>>
 653:c:\tools\gcc-arm-none-eabi-10-2020-q4-major\arm-none-eabi\include\c++\10.2.1\bits\stl_vector.h **** 	vector(_InputIterator __first, _InputIterator __last,
 654:c:\tools\gcc-arm-none-eabi-10-2020-q4-major\arm-none-eabi\include\c++\10.2.1\bits\stl_vector.h **** 	       const allocator_type& __a = allocator_type())
 655:c:\tools\gcc-arm-none-eabi-10-2020-q4-major\arm-none-eabi\include\c++\10.2.1\bits\stl_vector.h **** 	: _Base(__a)
 656:c:\tools\gcc-arm-none-eabi-10-2020-q4-major\arm-none-eabi\include\c++\10.2.1\bits\stl_vector.h **** 	{
 657:c:\tools\gcc-arm-none-eabi-10-2020-q4-major\arm-none-eabi\include\c++\10.2.1\bits\stl_vector.h **** 	  _M_range_initialize(__first, __last,
 658:c:\tools\gcc-arm-none-eabi-10-2020-q4-major\arm-none-eabi\include\c++\10.2.1\bits\stl_vector.h **** 			      std::__iterator_category(__first));
 659:c:\tools\gcc-arm-none-eabi-10-2020-q4-major\arm-none-eabi\include\c++\10.2.1\bits\stl_vector.h **** 	}
 660:c:\tools\gcc-arm-none-eabi-10-2020-q4-major\arm-none-eabi\include\c++\10.2.1\bits\stl_vector.h **** #else
 661:c:\tools\gcc-arm-none-eabi-10-2020-q4-major\arm-none-eabi\include\c++\10.2.1\bits\stl_vector.h ****       template<typename _InputIterator>
 662:c:\tools\gcc-arm-none-eabi-10-2020-q4-major\arm-none-eabi\include\c++\10.2.1\bits\stl_vector.h **** 	vector(_InputIterator __first, _InputIterator __last,
 663:c:\tools\gcc-arm-none-eabi-10-2020-q4-major\arm-none-eabi\include\c++\10.2.1\bits\stl_vector.h **** 	       const allocator_type& __a = allocator_type())
 664:c:\tools\gcc-arm-none-eabi-10-2020-q4-major\arm-none-eabi\include\c++\10.2.1\bits\stl_vector.h **** 	: _Base(__a)
 665:c:\tools\gcc-arm-none-eabi-10-2020-q4-major\arm-none-eabi\include\c++\10.2.1\bits\stl_vector.h **** 	{
 666:c:\tools\gcc-arm-none-eabi-10-2020-q4-major\arm-none-eabi\include\c++\10.2.1\bits\stl_vector.h **** 	  // Check whether it's an integral type.  If so, it's not an iterator.
 667:c:\tools\gcc-arm-none-eabi-10-2020-q4-major\arm-none-eabi\include\c++\10.2.1\bits\stl_vector.h **** 	  typedef typename std::__is_integer<_InputIterator>::__type _Integral;
 668:c:\tools\gcc-arm-none-eabi-10-2020-q4-major\arm-none-eabi\include\c++\10.2.1\bits\stl_vector.h **** 	  _M_initialize_dispatch(__first, __last, _Integral());
 669:c:\tools\gcc-arm-none-eabi-10-2020-q4-major\arm-none-eabi\include\c++\10.2.1\bits\stl_vector.h **** 	}
 670:c:\tools\gcc-arm-none-eabi-10-2020-q4-major\arm-none-eabi\include\c++\10.2.1\bits\stl_vector.h **** #endif
 671:c:\tools\gcc-arm-none-eabi-10-2020-q4-major\arm-none-eabi\include\c++\10.2.1\bits\stl_vector.h **** 
 672:c:\tools\gcc-arm-none-eabi-10-2020-q4-major\arm-none-eabi\include\c++\10.2.1\bits\stl_vector.h ****       /**
 673:c:\tools\gcc-arm-none-eabi-10-2020-q4-major\arm-none-eabi\include\c++\10.2.1\bits\stl_vector.h ****        *  The dtor only erases the elements, and note that if the
 674:c:\tools\gcc-arm-none-eabi-10-2020-q4-major\arm-none-eabi\include\c++\10.2.1\bits\stl_vector.h ****        *  elements themselves are pointers, the pointed-to memory is
 675:c:\tools\gcc-arm-none-eabi-10-2020-q4-major\arm-none-eabi\include\c++\10.2.1\bits\stl_vector.h ****        *  not touched in any way.  Managing the pointer is the user's
 676:c:\tools\gcc-arm-none-eabi-10-2020-q4-major\arm-none-eabi\include\c++\10.2.1\bits\stl_vector.h ****        *  responsibility.
 677:c:\tools\gcc-arm-none-eabi-10-2020-q4-major\arm-none-eabi\include\c++\10.2.1\bits\stl_vector.h ****        */
 678:c:\tools\gcc-arm-none-eabi-10-2020-q4-major\arm-none-eabi\include\c++\10.2.1\bits\stl_vector.h ****       ~vector() _GLIBCXX_NOEXCEPT
 679:c:\tools\gcc-arm-none-eabi-10-2020-q4-major\arm-none-eabi\include\c++\10.2.1\bits\stl_vector.h ****       {
 680:c:\tools\gcc-arm-none-eabi-10-2020-q4-major\arm-none-eabi\include\c++\10.2.1\bits\stl_vector.h **** 	std::_Destroy(this->_M_impl._M_start, this->_M_impl._M_finish,
 681:c:\tools\gcc-arm-none-eabi-10-2020-q4-major\arm-none-eabi\include\c++\10.2.1\bits\stl_vector.h **** 		      _M_get_Tp_allocator());
 682:c:\tools\gcc-arm-none-eabi-10-2020-q4-major\arm-none-eabi\include\c++\10.2.1\bits\stl_vector.h **** 	_GLIBCXX_ASAN_ANNOTATE_BEFORE_DEALLOC;
 683:c:\tools\gcc-arm-none-eabi-10-2020-q4-major\arm-none-eabi\include\c++\10.2.1\bits\stl_vector.h ****       }
 684:c:\tools\gcc-arm-none-eabi-10-2020-q4-major\arm-none-eabi\include\c++\10.2.1\bits\stl_vector.h **** 
 685:c:\tools\gcc-arm-none-eabi-10-2020-q4-major\arm-none-eabi\include\c++\10.2.1\bits\stl_vector.h ****       /**
 686:c:\tools\gcc-arm-none-eabi-10-2020-q4-major\arm-none-eabi\include\c++\10.2.1\bits\stl_vector.h ****        *  @brief  %Vector assignment operator.
 687:c:\tools\gcc-arm-none-eabi-10-2020-q4-major\arm-none-eabi\include\c++\10.2.1\bits\stl_vector.h ****        *  @param  __x  A %vector of identical element and allocator types.
 688:c:\tools\gcc-arm-none-eabi-10-2020-q4-major\arm-none-eabi\include\c++\10.2.1\bits\stl_vector.h ****        *
 689:c:\tools\gcc-arm-none-eabi-10-2020-q4-major\arm-none-eabi\include\c++\10.2.1\bits\stl_vector.h ****        *  All the elements of @a __x are copied, but any unused capacity in
 690:c:\tools\gcc-arm-none-eabi-10-2020-q4-major\arm-none-eabi\include\c++\10.2.1\bits\stl_vector.h ****        *  @a __x will not be copied.
 691:c:\tools\gcc-arm-none-eabi-10-2020-q4-major\arm-none-eabi\include\c++\10.2.1\bits\stl_vector.h ****        *
 692:c:\tools\gcc-arm-none-eabi-10-2020-q4-major\arm-none-eabi\include\c++\10.2.1\bits\stl_vector.h ****        *  Whether the allocator is copied depends on the allocator traits.
 693:c:\tools\gcc-arm-none-eabi-10-2020-q4-major\arm-none-eabi\include\c++\10.2.1\bits\stl_vector.h ****        */
 694:c:\tools\gcc-arm-none-eabi-10-2020-q4-major\arm-none-eabi\include\c++\10.2.1\bits\stl_vector.h ****       vector&
 695:c:\tools\gcc-arm-none-eabi-10-2020-q4-major\arm-none-eabi\include\c++\10.2.1\bits\stl_vector.h ****       operator=(const vector& __x);
 696:c:\tools\gcc-arm-none-eabi-10-2020-q4-major\arm-none-eabi\include\c++\10.2.1\bits\stl_vector.h **** 
 697:c:\tools\gcc-arm-none-eabi-10-2020-q4-major\arm-none-eabi\include\c++\10.2.1\bits\stl_vector.h **** #if __cplusplus >= 201103L
 698:c:\tools\gcc-arm-none-eabi-10-2020-q4-major\arm-none-eabi\include\c++\10.2.1\bits\stl_vector.h ****       /**
 699:c:\tools\gcc-arm-none-eabi-10-2020-q4-major\arm-none-eabi\include\c++\10.2.1\bits\stl_vector.h ****        *  @brief  %Vector move assignment operator.
 700:c:\tools\gcc-arm-none-eabi-10-2020-q4-major\arm-none-eabi\include\c++\10.2.1\bits\stl_vector.h ****        *  @param  __x  A %vector of identical element and allocator types.
 701:c:\tools\gcc-arm-none-eabi-10-2020-q4-major\arm-none-eabi\include\c++\10.2.1\bits\stl_vector.h ****        *
 702:c:\tools\gcc-arm-none-eabi-10-2020-q4-major\arm-none-eabi\include\c++\10.2.1\bits\stl_vector.h ****        *  The contents of @a __x are moved into this %vector (without copying,
 703:c:\tools\gcc-arm-none-eabi-10-2020-q4-major\arm-none-eabi\include\c++\10.2.1\bits\stl_vector.h ****        *  if the allocators permit it).
 704:c:\tools\gcc-arm-none-eabi-10-2020-q4-major\arm-none-eabi\include\c++\10.2.1\bits\stl_vector.h ****        *  Afterwards @a __x is a valid, but unspecified %vector.
ARM GAS  C:\Users\saite\AppData\Local\Temp\ccxfQYnf.s 			page 33


 705:c:\tools\gcc-arm-none-eabi-10-2020-q4-major\arm-none-eabi\include\c++\10.2.1\bits\stl_vector.h ****        *
 706:c:\tools\gcc-arm-none-eabi-10-2020-q4-major\arm-none-eabi\include\c++\10.2.1\bits\stl_vector.h ****        *  Whether the allocator is moved depends on the allocator traits.
 707:c:\tools\gcc-arm-none-eabi-10-2020-q4-major\arm-none-eabi\include\c++\10.2.1\bits\stl_vector.h ****        */
 708:c:\tools\gcc-arm-none-eabi-10-2020-q4-major\arm-none-eabi\include\c++\10.2.1\bits\stl_vector.h ****       vector&
 709:c:\tools\gcc-arm-none-eabi-10-2020-q4-major\arm-none-eabi\include\c++\10.2.1\bits\stl_vector.h ****       operator=(vector&& __x) noexcept(_Alloc_traits::_S_nothrow_move())
 710:c:\tools\gcc-arm-none-eabi-10-2020-q4-major\arm-none-eabi\include\c++\10.2.1\bits\stl_vector.h ****       {
 711:c:\tools\gcc-arm-none-eabi-10-2020-q4-major\arm-none-eabi\include\c++\10.2.1\bits\stl_vector.h **** 	constexpr bool __move_storage =
 712:c:\tools\gcc-arm-none-eabi-10-2020-q4-major\arm-none-eabi\include\c++\10.2.1\bits\stl_vector.h **** 	  _Alloc_traits::_S_propagate_on_move_assign()
 713:c:\tools\gcc-arm-none-eabi-10-2020-q4-major\arm-none-eabi\include\c++\10.2.1\bits\stl_vector.h **** 	  || _Alloc_traits::_S_always_equal();
 714:c:\tools\gcc-arm-none-eabi-10-2020-q4-major\arm-none-eabi\include\c++\10.2.1\bits\stl_vector.h **** 	_M_move_assign(std::move(__x), __bool_constant<__move_storage>());
 715:c:\tools\gcc-arm-none-eabi-10-2020-q4-major\arm-none-eabi\include\c++\10.2.1\bits\stl_vector.h **** 	return *this;
 716:c:\tools\gcc-arm-none-eabi-10-2020-q4-major\arm-none-eabi\include\c++\10.2.1\bits\stl_vector.h ****       }
 717:c:\tools\gcc-arm-none-eabi-10-2020-q4-major\arm-none-eabi\include\c++\10.2.1\bits\stl_vector.h **** 
 718:c:\tools\gcc-arm-none-eabi-10-2020-q4-major\arm-none-eabi\include\c++\10.2.1\bits\stl_vector.h ****       /**
 719:c:\tools\gcc-arm-none-eabi-10-2020-q4-major\arm-none-eabi\include\c++\10.2.1\bits\stl_vector.h ****        *  @brief  %Vector list assignment operator.
 720:c:\tools\gcc-arm-none-eabi-10-2020-q4-major\arm-none-eabi\include\c++\10.2.1\bits\stl_vector.h ****        *  @param  __l  An initializer_list.
 721:c:\tools\gcc-arm-none-eabi-10-2020-q4-major\arm-none-eabi\include\c++\10.2.1\bits\stl_vector.h ****        *
 722:c:\tools\gcc-arm-none-eabi-10-2020-q4-major\arm-none-eabi\include\c++\10.2.1\bits\stl_vector.h ****        *  This function fills a %vector with copies of the elements in the
 723:c:\tools\gcc-arm-none-eabi-10-2020-q4-major\arm-none-eabi\include\c++\10.2.1\bits\stl_vector.h ****        *  initializer list @a __l.
 724:c:\tools\gcc-arm-none-eabi-10-2020-q4-major\arm-none-eabi\include\c++\10.2.1\bits\stl_vector.h ****        *
 725:c:\tools\gcc-arm-none-eabi-10-2020-q4-major\arm-none-eabi\include\c++\10.2.1\bits\stl_vector.h ****        *  Note that the assignment completely changes the %vector and
 726:c:\tools\gcc-arm-none-eabi-10-2020-q4-major\arm-none-eabi\include\c++\10.2.1\bits\stl_vector.h ****        *  that the resulting %vector's size is the same as the number
 727:c:\tools\gcc-arm-none-eabi-10-2020-q4-major\arm-none-eabi\include\c++\10.2.1\bits\stl_vector.h ****        *  of elements assigned.
 728:c:\tools\gcc-arm-none-eabi-10-2020-q4-major\arm-none-eabi\include\c++\10.2.1\bits\stl_vector.h ****        */
 729:c:\tools\gcc-arm-none-eabi-10-2020-q4-major\arm-none-eabi\include\c++\10.2.1\bits\stl_vector.h ****       vector&
 730:c:\tools\gcc-arm-none-eabi-10-2020-q4-major\arm-none-eabi\include\c++\10.2.1\bits\stl_vector.h ****       operator=(initializer_list<value_type> __l)
 731:c:\tools\gcc-arm-none-eabi-10-2020-q4-major\arm-none-eabi\include\c++\10.2.1\bits\stl_vector.h ****       {
 732:c:\tools\gcc-arm-none-eabi-10-2020-q4-major\arm-none-eabi\include\c++\10.2.1\bits\stl_vector.h **** 	this->_M_assign_aux(__l.begin(), __l.end(),
 733:c:\tools\gcc-arm-none-eabi-10-2020-q4-major\arm-none-eabi\include\c++\10.2.1\bits\stl_vector.h **** 			    random_access_iterator_tag());
 734:c:\tools\gcc-arm-none-eabi-10-2020-q4-major\arm-none-eabi\include\c++\10.2.1\bits\stl_vector.h **** 	return *this;
 735:c:\tools\gcc-arm-none-eabi-10-2020-q4-major\arm-none-eabi\include\c++\10.2.1\bits\stl_vector.h ****       }
 736:c:\tools\gcc-arm-none-eabi-10-2020-q4-major\arm-none-eabi\include\c++\10.2.1\bits\stl_vector.h **** #endif
 737:c:\tools\gcc-arm-none-eabi-10-2020-q4-major\arm-none-eabi\include\c++\10.2.1\bits\stl_vector.h **** 
 738:c:\tools\gcc-arm-none-eabi-10-2020-q4-major\arm-none-eabi\include\c++\10.2.1\bits\stl_vector.h ****       /**
 739:c:\tools\gcc-arm-none-eabi-10-2020-q4-major\arm-none-eabi\include\c++\10.2.1\bits\stl_vector.h ****        *  @brief  Assigns a given value to a %vector.
 740:c:\tools\gcc-arm-none-eabi-10-2020-q4-major\arm-none-eabi\include\c++\10.2.1\bits\stl_vector.h ****        *  @param  __n  Number of elements to be assigned.
 741:c:\tools\gcc-arm-none-eabi-10-2020-q4-major\arm-none-eabi\include\c++\10.2.1\bits\stl_vector.h ****        *  @param  __val  Value to be assigned.
 742:c:\tools\gcc-arm-none-eabi-10-2020-q4-major\arm-none-eabi\include\c++\10.2.1\bits\stl_vector.h ****        *
 743:c:\tools\gcc-arm-none-eabi-10-2020-q4-major\arm-none-eabi\include\c++\10.2.1\bits\stl_vector.h ****        *  This function fills a %vector with @a __n copies of the given
 744:c:\tools\gcc-arm-none-eabi-10-2020-q4-major\arm-none-eabi\include\c++\10.2.1\bits\stl_vector.h ****        *  value.  Note that the assignment completely changes the
 745:c:\tools\gcc-arm-none-eabi-10-2020-q4-major\arm-none-eabi\include\c++\10.2.1\bits\stl_vector.h ****        *  %vector and that the resulting %vector's size is the same as
 746:c:\tools\gcc-arm-none-eabi-10-2020-q4-major\arm-none-eabi\include\c++\10.2.1\bits\stl_vector.h ****        *  the number of elements assigned.
 747:c:\tools\gcc-arm-none-eabi-10-2020-q4-major\arm-none-eabi\include\c++\10.2.1\bits\stl_vector.h ****        */
 748:c:\tools\gcc-arm-none-eabi-10-2020-q4-major\arm-none-eabi\include\c++\10.2.1\bits\stl_vector.h ****       void
 749:c:\tools\gcc-arm-none-eabi-10-2020-q4-major\arm-none-eabi\include\c++\10.2.1\bits\stl_vector.h ****       assign(size_type __n, const value_type& __val)
 750:c:\tools\gcc-arm-none-eabi-10-2020-q4-major\arm-none-eabi\include\c++\10.2.1\bits\stl_vector.h ****       { _M_fill_assign(__n, __val); }
 751:c:\tools\gcc-arm-none-eabi-10-2020-q4-major\arm-none-eabi\include\c++\10.2.1\bits\stl_vector.h **** 
 752:c:\tools\gcc-arm-none-eabi-10-2020-q4-major\arm-none-eabi\include\c++\10.2.1\bits\stl_vector.h ****       /**
 753:c:\tools\gcc-arm-none-eabi-10-2020-q4-major\arm-none-eabi\include\c++\10.2.1\bits\stl_vector.h ****        *  @brief  Assigns a range to a %vector.
 754:c:\tools\gcc-arm-none-eabi-10-2020-q4-major\arm-none-eabi\include\c++\10.2.1\bits\stl_vector.h ****        *  @param  __first  An input iterator.
 755:c:\tools\gcc-arm-none-eabi-10-2020-q4-major\arm-none-eabi\include\c++\10.2.1\bits\stl_vector.h ****        *  @param  __last   An input iterator.
 756:c:\tools\gcc-arm-none-eabi-10-2020-q4-major\arm-none-eabi\include\c++\10.2.1\bits\stl_vector.h ****        *
 757:c:\tools\gcc-arm-none-eabi-10-2020-q4-major\arm-none-eabi\include\c++\10.2.1\bits\stl_vector.h ****        *  This function fills a %vector with copies of the elements in the
 758:c:\tools\gcc-arm-none-eabi-10-2020-q4-major\arm-none-eabi\include\c++\10.2.1\bits\stl_vector.h ****        *  range [__first,__last).
 759:c:\tools\gcc-arm-none-eabi-10-2020-q4-major\arm-none-eabi\include\c++\10.2.1\bits\stl_vector.h ****        *
 760:c:\tools\gcc-arm-none-eabi-10-2020-q4-major\arm-none-eabi\include\c++\10.2.1\bits\stl_vector.h ****        *  Note that the assignment completely changes the %vector and
 761:c:\tools\gcc-arm-none-eabi-10-2020-q4-major\arm-none-eabi\include\c++\10.2.1\bits\stl_vector.h ****        *  that the resulting %vector's size is the same as the number
ARM GAS  C:\Users\saite\AppData\Local\Temp\ccxfQYnf.s 			page 34


 762:c:\tools\gcc-arm-none-eabi-10-2020-q4-major\arm-none-eabi\include\c++\10.2.1\bits\stl_vector.h ****        *  of elements assigned.
 763:c:\tools\gcc-arm-none-eabi-10-2020-q4-major\arm-none-eabi\include\c++\10.2.1\bits\stl_vector.h ****        */
 764:c:\tools\gcc-arm-none-eabi-10-2020-q4-major\arm-none-eabi\include\c++\10.2.1\bits\stl_vector.h **** #if __cplusplus >= 201103L
 765:c:\tools\gcc-arm-none-eabi-10-2020-q4-major\arm-none-eabi\include\c++\10.2.1\bits\stl_vector.h ****       template<typename _InputIterator,
 766:c:\tools\gcc-arm-none-eabi-10-2020-q4-major\arm-none-eabi\include\c++\10.2.1\bits\stl_vector.h **** 	       typename = std::_RequireInputIter<_InputIterator>>
 767:c:\tools\gcc-arm-none-eabi-10-2020-q4-major\arm-none-eabi\include\c++\10.2.1\bits\stl_vector.h **** 	void
 768:c:\tools\gcc-arm-none-eabi-10-2020-q4-major\arm-none-eabi\include\c++\10.2.1\bits\stl_vector.h **** 	assign(_InputIterator __first, _InputIterator __last)
 769:c:\tools\gcc-arm-none-eabi-10-2020-q4-major\arm-none-eabi\include\c++\10.2.1\bits\stl_vector.h **** 	{ _M_assign_dispatch(__first, __last, __false_type()); }
 770:c:\tools\gcc-arm-none-eabi-10-2020-q4-major\arm-none-eabi\include\c++\10.2.1\bits\stl_vector.h **** #else
 771:c:\tools\gcc-arm-none-eabi-10-2020-q4-major\arm-none-eabi\include\c++\10.2.1\bits\stl_vector.h ****       template<typename _InputIterator>
 772:c:\tools\gcc-arm-none-eabi-10-2020-q4-major\arm-none-eabi\include\c++\10.2.1\bits\stl_vector.h **** 	void
 773:c:\tools\gcc-arm-none-eabi-10-2020-q4-major\arm-none-eabi\include\c++\10.2.1\bits\stl_vector.h **** 	assign(_InputIterator __first, _InputIterator __last)
 774:c:\tools\gcc-arm-none-eabi-10-2020-q4-major\arm-none-eabi\include\c++\10.2.1\bits\stl_vector.h **** 	{
 775:c:\tools\gcc-arm-none-eabi-10-2020-q4-major\arm-none-eabi\include\c++\10.2.1\bits\stl_vector.h **** 	  // Check whether it's an integral type.  If so, it's not an iterator.
 776:c:\tools\gcc-arm-none-eabi-10-2020-q4-major\arm-none-eabi\include\c++\10.2.1\bits\stl_vector.h **** 	  typedef typename std::__is_integer<_InputIterator>::__type _Integral;
 777:c:\tools\gcc-arm-none-eabi-10-2020-q4-major\arm-none-eabi\include\c++\10.2.1\bits\stl_vector.h **** 	  _M_assign_dispatch(__first, __last, _Integral());
 778:c:\tools\gcc-arm-none-eabi-10-2020-q4-major\arm-none-eabi\include\c++\10.2.1\bits\stl_vector.h **** 	}
 779:c:\tools\gcc-arm-none-eabi-10-2020-q4-major\arm-none-eabi\include\c++\10.2.1\bits\stl_vector.h **** #endif
 780:c:\tools\gcc-arm-none-eabi-10-2020-q4-major\arm-none-eabi\include\c++\10.2.1\bits\stl_vector.h **** 
 781:c:\tools\gcc-arm-none-eabi-10-2020-q4-major\arm-none-eabi\include\c++\10.2.1\bits\stl_vector.h **** #if __cplusplus >= 201103L
 782:c:\tools\gcc-arm-none-eabi-10-2020-q4-major\arm-none-eabi\include\c++\10.2.1\bits\stl_vector.h ****       /**
 783:c:\tools\gcc-arm-none-eabi-10-2020-q4-major\arm-none-eabi\include\c++\10.2.1\bits\stl_vector.h ****        *  @brief  Assigns an initializer list to a %vector.
 784:c:\tools\gcc-arm-none-eabi-10-2020-q4-major\arm-none-eabi\include\c++\10.2.1\bits\stl_vector.h ****        *  @param  __l  An initializer_list.
 785:c:\tools\gcc-arm-none-eabi-10-2020-q4-major\arm-none-eabi\include\c++\10.2.1\bits\stl_vector.h ****        *
 786:c:\tools\gcc-arm-none-eabi-10-2020-q4-major\arm-none-eabi\include\c++\10.2.1\bits\stl_vector.h ****        *  This function fills a %vector with copies of the elements in the
 787:c:\tools\gcc-arm-none-eabi-10-2020-q4-major\arm-none-eabi\include\c++\10.2.1\bits\stl_vector.h ****        *  initializer list @a __l.
 788:c:\tools\gcc-arm-none-eabi-10-2020-q4-major\arm-none-eabi\include\c++\10.2.1\bits\stl_vector.h ****        *
 789:c:\tools\gcc-arm-none-eabi-10-2020-q4-major\arm-none-eabi\include\c++\10.2.1\bits\stl_vector.h ****        *  Note that the assignment completely changes the %vector and
 790:c:\tools\gcc-arm-none-eabi-10-2020-q4-major\arm-none-eabi\include\c++\10.2.1\bits\stl_vector.h ****        *  that the resulting %vector's size is the same as the number
 791:c:\tools\gcc-arm-none-eabi-10-2020-q4-major\arm-none-eabi\include\c++\10.2.1\bits\stl_vector.h ****        *  of elements assigned.
 792:c:\tools\gcc-arm-none-eabi-10-2020-q4-major\arm-none-eabi\include\c++\10.2.1\bits\stl_vector.h ****        */
 793:c:\tools\gcc-arm-none-eabi-10-2020-q4-major\arm-none-eabi\include\c++\10.2.1\bits\stl_vector.h ****       void
 794:c:\tools\gcc-arm-none-eabi-10-2020-q4-major\arm-none-eabi\include\c++\10.2.1\bits\stl_vector.h ****       assign(initializer_list<value_type> __l)
 795:c:\tools\gcc-arm-none-eabi-10-2020-q4-major\arm-none-eabi\include\c++\10.2.1\bits\stl_vector.h ****       {
 796:c:\tools\gcc-arm-none-eabi-10-2020-q4-major\arm-none-eabi\include\c++\10.2.1\bits\stl_vector.h **** 	this->_M_assign_aux(__l.begin(), __l.end(),
 797:c:\tools\gcc-arm-none-eabi-10-2020-q4-major\arm-none-eabi\include\c++\10.2.1\bits\stl_vector.h **** 			    random_access_iterator_tag());
 798:c:\tools\gcc-arm-none-eabi-10-2020-q4-major\arm-none-eabi\include\c++\10.2.1\bits\stl_vector.h ****       }
 799:c:\tools\gcc-arm-none-eabi-10-2020-q4-major\arm-none-eabi\include\c++\10.2.1\bits\stl_vector.h **** #endif
 800:c:\tools\gcc-arm-none-eabi-10-2020-q4-major\arm-none-eabi\include\c++\10.2.1\bits\stl_vector.h **** 
 801:c:\tools\gcc-arm-none-eabi-10-2020-q4-major\arm-none-eabi\include\c++\10.2.1\bits\stl_vector.h ****       /// Get a copy of the memory allocation object.
 802:c:\tools\gcc-arm-none-eabi-10-2020-q4-major\arm-none-eabi\include\c++\10.2.1\bits\stl_vector.h ****       using _Base::get_allocator;
 803:c:\tools\gcc-arm-none-eabi-10-2020-q4-major\arm-none-eabi\include\c++\10.2.1\bits\stl_vector.h **** 
 804:c:\tools\gcc-arm-none-eabi-10-2020-q4-major\arm-none-eabi\include\c++\10.2.1\bits\stl_vector.h ****       // iterators
 805:c:\tools\gcc-arm-none-eabi-10-2020-q4-major\arm-none-eabi\include\c++\10.2.1\bits\stl_vector.h ****       /**
 806:c:\tools\gcc-arm-none-eabi-10-2020-q4-major\arm-none-eabi\include\c++\10.2.1\bits\stl_vector.h ****        *  Returns a read/write iterator that points to the first
 807:c:\tools\gcc-arm-none-eabi-10-2020-q4-major\arm-none-eabi\include\c++\10.2.1\bits\stl_vector.h ****        *  element in the %vector.  Iteration is done in ordinary
 808:c:\tools\gcc-arm-none-eabi-10-2020-q4-major\arm-none-eabi\include\c++\10.2.1\bits\stl_vector.h ****        *  element order.
 809:c:\tools\gcc-arm-none-eabi-10-2020-q4-major\arm-none-eabi\include\c++\10.2.1\bits\stl_vector.h ****        */
 810:c:\tools\gcc-arm-none-eabi-10-2020-q4-major\arm-none-eabi\include\c++\10.2.1\bits\stl_vector.h ****       iterator
 811:c:\tools\gcc-arm-none-eabi-10-2020-q4-major\arm-none-eabi\include\c++\10.2.1\bits\stl_vector.h ****       begin() _GLIBCXX_NOEXCEPT
 812:c:\tools\gcc-arm-none-eabi-10-2020-q4-major\arm-none-eabi\include\c++\10.2.1\bits\stl_vector.h ****       { return iterator(this->_M_impl._M_start); }
 813:c:\tools\gcc-arm-none-eabi-10-2020-q4-major\arm-none-eabi\include\c++\10.2.1\bits\stl_vector.h **** 
 814:c:\tools\gcc-arm-none-eabi-10-2020-q4-major\arm-none-eabi\include\c++\10.2.1\bits\stl_vector.h ****       /**
 815:c:\tools\gcc-arm-none-eabi-10-2020-q4-major\arm-none-eabi\include\c++\10.2.1\bits\stl_vector.h ****        *  Returns a read-only (constant) iterator that points to the
 816:c:\tools\gcc-arm-none-eabi-10-2020-q4-major\arm-none-eabi\include\c++\10.2.1\bits\stl_vector.h ****        *  first element in the %vector.  Iteration is done in ordinary
 817:c:\tools\gcc-arm-none-eabi-10-2020-q4-major\arm-none-eabi\include\c++\10.2.1\bits\stl_vector.h ****        *  element order.
 818:c:\tools\gcc-arm-none-eabi-10-2020-q4-major\arm-none-eabi\include\c++\10.2.1\bits\stl_vector.h ****        */
ARM GAS  C:\Users\saite\AppData\Local\Temp\ccxfQYnf.s 			page 35


 819:c:\tools\gcc-arm-none-eabi-10-2020-q4-major\arm-none-eabi\include\c++\10.2.1\bits\stl_vector.h ****       const_iterator
 820:c:\tools\gcc-arm-none-eabi-10-2020-q4-major\arm-none-eabi\include\c++\10.2.1\bits\stl_vector.h ****       begin() const _GLIBCXX_NOEXCEPT
 821:c:\tools\gcc-arm-none-eabi-10-2020-q4-major\arm-none-eabi\include\c++\10.2.1\bits\stl_vector.h ****       { return const_iterator(this->_M_impl._M_start); }
 822:c:\tools\gcc-arm-none-eabi-10-2020-q4-major\arm-none-eabi\include\c++\10.2.1\bits\stl_vector.h **** 
 823:c:\tools\gcc-arm-none-eabi-10-2020-q4-major\arm-none-eabi\include\c++\10.2.1\bits\stl_vector.h ****       /**
 824:c:\tools\gcc-arm-none-eabi-10-2020-q4-major\arm-none-eabi\include\c++\10.2.1\bits\stl_vector.h ****        *  Returns a read/write iterator that points one past the last
 825:c:\tools\gcc-arm-none-eabi-10-2020-q4-major\arm-none-eabi\include\c++\10.2.1\bits\stl_vector.h ****        *  element in the %vector.  Iteration is done in ordinary
 826:c:\tools\gcc-arm-none-eabi-10-2020-q4-major\arm-none-eabi\include\c++\10.2.1\bits\stl_vector.h ****        *  element order.
 827:c:\tools\gcc-arm-none-eabi-10-2020-q4-major\arm-none-eabi\include\c++\10.2.1\bits\stl_vector.h ****        */
 828:c:\tools\gcc-arm-none-eabi-10-2020-q4-major\arm-none-eabi\include\c++\10.2.1\bits\stl_vector.h ****       iterator
 829:c:\tools\gcc-arm-none-eabi-10-2020-q4-major\arm-none-eabi\include\c++\10.2.1\bits\stl_vector.h ****       end() _GLIBCXX_NOEXCEPT
 830:c:\tools\gcc-arm-none-eabi-10-2020-q4-major\arm-none-eabi\include\c++\10.2.1\bits\stl_vector.h ****       { return iterator(this->_M_impl._M_finish); }
 831:c:\tools\gcc-arm-none-eabi-10-2020-q4-major\arm-none-eabi\include\c++\10.2.1\bits\stl_vector.h **** 
 832:c:\tools\gcc-arm-none-eabi-10-2020-q4-major\arm-none-eabi\include\c++\10.2.1\bits\stl_vector.h ****       /**
 833:c:\tools\gcc-arm-none-eabi-10-2020-q4-major\arm-none-eabi\include\c++\10.2.1\bits\stl_vector.h ****        *  Returns a read-only (constant) iterator that points one past
 834:c:\tools\gcc-arm-none-eabi-10-2020-q4-major\arm-none-eabi\include\c++\10.2.1\bits\stl_vector.h ****        *  the last element in the %vector.  Iteration is done in
 835:c:\tools\gcc-arm-none-eabi-10-2020-q4-major\arm-none-eabi\include\c++\10.2.1\bits\stl_vector.h ****        *  ordinary element order.
 836:c:\tools\gcc-arm-none-eabi-10-2020-q4-major\arm-none-eabi\include\c++\10.2.1\bits\stl_vector.h ****        */
 837:c:\tools\gcc-arm-none-eabi-10-2020-q4-major\arm-none-eabi\include\c++\10.2.1\bits\stl_vector.h ****       const_iterator
 838:c:\tools\gcc-arm-none-eabi-10-2020-q4-major\arm-none-eabi\include\c++\10.2.1\bits\stl_vector.h ****       end() const _GLIBCXX_NOEXCEPT
 839:c:\tools\gcc-arm-none-eabi-10-2020-q4-major\arm-none-eabi\include\c++\10.2.1\bits\stl_vector.h ****       { return const_iterator(this->_M_impl._M_finish); }
 840:c:\tools\gcc-arm-none-eabi-10-2020-q4-major\arm-none-eabi\include\c++\10.2.1\bits\stl_vector.h **** 
 841:c:\tools\gcc-arm-none-eabi-10-2020-q4-major\arm-none-eabi\include\c++\10.2.1\bits\stl_vector.h ****       /**
 842:c:\tools\gcc-arm-none-eabi-10-2020-q4-major\arm-none-eabi\include\c++\10.2.1\bits\stl_vector.h ****        *  Returns a read/write reverse iterator that points to the
 843:c:\tools\gcc-arm-none-eabi-10-2020-q4-major\arm-none-eabi\include\c++\10.2.1\bits\stl_vector.h ****        *  last element in the %vector.  Iteration is done in reverse
 844:c:\tools\gcc-arm-none-eabi-10-2020-q4-major\arm-none-eabi\include\c++\10.2.1\bits\stl_vector.h ****        *  element order.
 845:c:\tools\gcc-arm-none-eabi-10-2020-q4-major\arm-none-eabi\include\c++\10.2.1\bits\stl_vector.h ****        */
 846:c:\tools\gcc-arm-none-eabi-10-2020-q4-major\arm-none-eabi\include\c++\10.2.1\bits\stl_vector.h ****       reverse_iterator
 847:c:\tools\gcc-arm-none-eabi-10-2020-q4-major\arm-none-eabi\include\c++\10.2.1\bits\stl_vector.h ****       rbegin() _GLIBCXX_NOEXCEPT
 848:c:\tools\gcc-arm-none-eabi-10-2020-q4-major\arm-none-eabi\include\c++\10.2.1\bits\stl_vector.h ****       { return reverse_iterator(end()); }
 849:c:\tools\gcc-arm-none-eabi-10-2020-q4-major\arm-none-eabi\include\c++\10.2.1\bits\stl_vector.h **** 
 850:c:\tools\gcc-arm-none-eabi-10-2020-q4-major\arm-none-eabi\include\c++\10.2.1\bits\stl_vector.h ****       /**
 851:c:\tools\gcc-arm-none-eabi-10-2020-q4-major\arm-none-eabi\include\c++\10.2.1\bits\stl_vector.h ****        *  Returns a read-only (constant) reverse iterator that points
 852:c:\tools\gcc-arm-none-eabi-10-2020-q4-major\arm-none-eabi\include\c++\10.2.1\bits\stl_vector.h ****        *  to the last element in the %vector.  Iteration is done in
 853:c:\tools\gcc-arm-none-eabi-10-2020-q4-major\arm-none-eabi\include\c++\10.2.1\bits\stl_vector.h ****        *  reverse element order.
 854:c:\tools\gcc-arm-none-eabi-10-2020-q4-major\arm-none-eabi\include\c++\10.2.1\bits\stl_vector.h ****        */
 855:c:\tools\gcc-arm-none-eabi-10-2020-q4-major\arm-none-eabi\include\c++\10.2.1\bits\stl_vector.h ****       const_reverse_iterator
 856:c:\tools\gcc-arm-none-eabi-10-2020-q4-major\arm-none-eabi\include\c++\10.2.1\bits\stl_vector.h ****       rbegin() const _GLIBCXX_NOEXCEPT
 857:c:\tools\gcc-arm-none-eabi-10-2020-q4-major\arm-none-eabi\include\c++\10.2.1\bits\stl_vector.h ****       { return const_reverse_iterator(end()); }
 858:c:\tools\gcc-arm-none-eabi-10-2020-q4-major\arm-none-eabi\include\c++\10.2.1\bits\stl_vector.h **** 
 859:c:\tools\gcc-arm-none-eabi-10-2020-q4-major\arm-none-eabi\include\c++\10.2.1\bits\stl_vector.h ****       /**
 860:c:\tools\gcc-arm-none-eabi-10-2020-q4-major\arm-none-eabi\include\c++\10.2.1\bits\stl_vector.h ****        *  Returns a read/write reverse iterator that points to one
 861:c:\tools\gcc-arm-none-eabi-10-2020-q4-major\arm-none-eabi\include\c++\10.2.1\bits\stl_vector.h ****        *  before the first element in the %vector.  Iteration is done
 862:c:\tools\gcc-arm-none-eabi-10-2020-q4-major\arm-none-eabi\include\c++\10.2.1\bits\stl_vector.h ****        *  in reverse element order.
 863:c:\tools\gcc-arm-none-eabi-10-2020-q4-major\arm-none-eabi\include\c++\10.2.1\bits\stl_vector.h ****        */
 864:c:\tools\gcc-arm-none-eabi-10-2020-q4-major\arm-none-eabi\include\c++\10.2.1\bits\stl_vector.h ****       reverse_iterator
 865:c:\tools\gcc-arm-none-eabi-10-2020-q4-major\arm-none-eabi\include\c++\10.2.1\bits\stl_vector.h ****       rend() _GLIBCXX_NOEXCEPT
 866:c:\tools\gcc-arm-none-eabi-10-2020-q4-major\arm-none-eabi\include\c++\10.2.1\bits\stl_vector.h ****       { return reverse_iterator(begin()); }
 867:c:\tools\gcc-arm-none-eabi-10-2020-q4-major\arm-none-eabi\include\c++\10.2.1\bits\stl_vector.h **** 
 868:c:\tools\gcc-arm-none-eabi-10-2020-q4-major\arm-none-eabi\include\c++\10.2.1\bits\stl_vector.h ****       /**
 869:c:\tools\gcc-arm-none-eabi-10-2020-q4-major\arm-none-eabi\include\c++\10.2.1\bits\stl_vector.h ****        *  Returns a read-only (constant) reverse iterator that points
 870:c:\tools\gcc-arm-none-eabi-10-2020-q4-major\arm-none-eabi\include\c++\10.2.1\bits\stl_vector.h ****        *  to one before the first element in the %vector.  Iteration
 871:c:\tools\gcc-arm-none-eabi-10-2020-q4-major\arm-none-eabi\include\c++\10.2.1\bits\stl_vector.h ****        *  is done in reverse element order.
 872:c:\tools\gcc-arm-none-eabi-10-2020-q4-major\arm-none-eabi\include\c++\10.2.1\bits\stl_vector.h ****        */
 873:c:\tools\gcc-arm-none-eabi-10-2020-q4-major\arm-none-eabi\include\c++\10.2.1\bits\stl_vector.h ****       const_reverse_iterator
 874:c:\tools\gcc-arm-none-eabi-10-2020-q4-major\arm-none-eabi\include\c++\10.2.1\bits\stl_vector.h ****       rend() const _GLIBCXX_NOEXCEPT
 875:c:\tools\gcc-arm-none-eabi-10-2020-q4-major\arm-none-eabi\include\c++\10.2.1\bits\stl_vector.h ****       { return const_reverse_iterator(begin()); }
ARM GAS  C:\Users\saite\AppData\Local\Temp\ccxfQYnf.s 			page 36


 876:c:\tools\gcc-arm-none-eabi-10-2020-q4-major\arm-none-eabi\include\c++\10.2.1\bits\stl_vector.h **** 
 877:c:\tools\gcc-arm-none-eabi-10-2020-q4-major\arm-none-eabi\include\c++\10.2.1\bits\stl_vector.h **** #if __cplusplus >= 201103L
 878:c:\tools\gcc-arm-none-eabi-10-2020-q4-major\arm-none-eabi\include\c++\10.2.1\bits\stl_vector.h ****       /**
 879:c:\tools\gcc-arm-none-eabi-10-2020-q4-major\arm-none-eabi\include\c++\10.2.1\bits\stl_vector.h ****        *  Returns a read-only (constant) iterator that points to the
 880:c:\tools\gcc-arm-none-eabi-10-2020-q4-major\arm-none-eabi\include\c++\10.2.1\bits\stl_vector.h ****        *  first element in the %vector.  Iteration is done in ordinary
 881:c:\tools\gcc-arm-none-eabi-10-2020-q4-major\arm-none-eabi\include\c++\10.2.1\bits\stl_vector.h ****        *  element order.
 882:c:\tools\gcc-arm-none-eabi-10-2020-q4-major\arm-none-eabi\include\c++\10.2.1\bits\stl_vector.h ****        */
 883:c:\tools\gcc-arm-none-eabi-10-2020-q4-major\arm-none-eabi\include\c++\10.2.1\bits\stl_vector.h ****       const_iterator
 884:c:\tools\gcc-arm-none-eabi-10-2020-q4-major\arm-none-eabi\include\c++\10.2.1\bits\stl_vector.h ****       cbegin() const noexcept
 885:c:\tools\gcc-arm-none-eabi-10-2020-q4-major\arm-none-eabi\include\c++\10.2.1\bits\stl_vector.h ****       { return const_iterator(this->_M_impl._M_start); }
 886:c:\tools\gcc-arm-none-eabi-10-2020-q4-major\arm-none-eabi\include\c++\10.2.1\bits\stl_vector.h **** 
 887:c:\tools\gcc-arm-none-eabi-10-2020-q4-major\arm-none-eabi\include\c++\10.2.1\bits\stl_vector.h ****       /**
 888:c:\tools\gcc-arm-none-eabi-10-2020-q4-major\arm-none-eabi\include\c++\10.2.1\bits\stl_vector.h ****        *  Returns a read-only (constant) iterator that points one past
 889:c:\tools\gcc-arm-none-eabi-10-2020-q4-major\arm-none-eabi\include\c++\10.2.1\bits\stl_vector.h ****        *  the last element in the %vector.  Iteration is done in
 890:c:\tools\gcc-arm-none-eabi-10-2020-q4-major\arm-none-eabi\include\c++\10.2.1\bits\stl_vector.h ****        *  ordinary element order.
 891:c:\tools\gcc-arm-none-eabi-10-2020-q4-major\arm-none-eabi\include\c++\10.2.1\bits\stl_vector.h ****        */
 892:c:\tools\gcc-arm-none-eabi-10-2020-q4-major\arm-none-eabi\include\c++\10.2.1\bits\stl_vector.h ****       const_iterator
 893:c:\tools\gcc-arm-none-eabi-10-2020-q4-major\arm-none-eabi\include\c++\10.2.1\bits\stl_vector.h ****       cend() const noexcept
 894:c:\tools\gcc-arm-none-eabi-10-2020-q4-major\arm-none-eabi\include\c++\10.2.1\bits\stl_vector.h ****       { return const_iterator(this->_M_impl._M_finish); }
 895:c:\tools\gcc-arm-none-eabi-10-2020-q4-major\arm-none-eabi\include\c++\10.2.1\bits\stl_vector.h **** 
 896:c:\tools\gcc-arm-none-eabi-10-2020-q4-major\arm-none-eabi\include\c++\10.2.1\bits\stl_vector.h ****       /**
 897:c:\tools\gcc-arm-none-eabi-10-2020-q4-major\arm-none-eabi\include\c++\10.2.1\bits\stl_vector.h ****        *  Returns a read-only (constant) reverse iterator that points
 898:c:\tools\gcc-arm-none-eabi-10-2020-q4-major\arm-none-eabi\include\c++\10.2.1\bits\stl_vector.h ****        *  to the last element in the %vector.  Iteration is done in
 899:c:\tools\gcc-arm-none-eabi-10-2020-q4-major\arm-none-eabi\include\c++\10.2.1\bits\stl_vector.h ****        *  reverse element order.
 900:c:\tools\gcc-arm-none-eabi-10-2020-q4-major\arm-none-eabi\include\c++\10.2.1\bits\stl_vector.h ****        */
 901:c:\tools\gcc-arm-none-eabi-10-2020-q4-major\arm-none-eabi\include\c++\10.2.1\bits\stl_vector.h ****       const_reverse_iterator
 902:c:\tools\gcc-arm-none-eabi-10-2020-q4-major\arm-none-eabi\include\c++\10.2.1\bits\stl_vector.h ****       crbegin() const noexcept
 903:c:\tools\gcc-arm-none-eabi-10-2020-q4-major\arm-none-eabi\include\c++\10.2.1\bits\stl_vector.h ****       { return const_reverse_iterator(end()); }
 904:c:\tools\gcc-arm-none-eabi-10-2020-q4-major\arm-none-eabi\include\c++\10.2.1\bits\stl_vector.h **** 
 905:c:\tools\gcc-arm-none-eabi-10-2020-q4-major\arm-none-eabi\include\c++\10.2.1\bits\stl_vector.h ****       /**
 906:c:\tools\gcc-arm-none-eabi-10-2020-q4-major\arm-none-eabi\include\c++\10.2.1\bits\stl_vector.h ****        *  Returns a read-only (constant) reverse iterator that points
 907:c:\tools\gcc-arm-none-eabi-10-2020-q4-major\arm-none-eabi\include\c++\10.2.1\bits\stl_vector.h ****        *  to one before the first element in the %vector.  Iteration
 908:c:\tools\gcc-arm-none-eabi-10-2020-q4-major\arm-none-eabi\include\c++\10.2.1\bits\stl_vector.h ****        *  is done in reverse element order.
 909:c:\tools\gcc-arm-none-eabi-10-2020-q4-major\arm-none-eabi\include\c++\10.2.1\bits\stl_vector.h ****        */
 910:c:\tools\gcc-arm-none-eabi-10-2020-q4-major\arm-none-eabi\include\c++\10.2.1\bits\stl_vector.h ****       const_reverse_iterator
 911:c:\tools\gcc-arm-none-eabi-10-2020-q4-major\arm-none-eabi\include\c++\10.2.1\bits\stl_vector.h ****       crend() const noexcept
 912:c:\tools\gcc-arm-none-eabi-10-2020-q4-major\arm-none-eabi\include\c++\10.2.1\bits\stl_vector.h ****       { return const_reverse_iterator(begin()); }
 913:c:\tools\gcc-arm-none-eabi-10-2020-q4-major\arm-none-eabi\include\c++\10.2.1\bits\stl_vector.h **** #endif
 914:c:\tools\gcc-arm-none-eabi-10-2020-q4-major\arm-none-eabi\include\c++\10.2.1\bits\stl_vector.h **** 
 915:c:\tools\gcc-arm-none-eabi-10-2020-q4-major\arm-none-eabi\include\c++\10.2.1\bits\stl_vector.h ****       // [23.2.4.2] capacity
 916:c:\tools\gcc-arm-none-eabi-10-2020-q4-major\arm-none-eabi\include\c++\10.2.1\bits\stl_vector.h ****       /**  Returns the number of elements in the %vector.  */
 917:c:\tools\gcc-arm-none-eabi-10-2020-q4-major\arm-none-eabi\include\c++\10.2.1\bits\stl_vector.h ****       size_type
 918:c:\tools\gcc-arm-none-eabi-10-2020-q4-major\arm-none-eabi\include\c++\10.2.1\bits\stl_vector.h ****       size() const _GLIBCXX_NOEXCEPT
 919:c:\tools\gcc-arm-none-eabi-10-2020-q4-major\arm-none-eabi\include\c++\10.2.1\bits\stl_vector.h ****       { return size_type(this->_M_impl._M_finish - this->_M_impl._M_start); }
 920:c:\tools\gcc-arm-none-eabi-10-2020-q4-major\arm-none-eabi\include\c++\10.2.1\bits\stl_vector.h **** 
 921:c:\tools\gcc-arm-none-eabi-10-2020-q4-major\arm-none-eabi\include\c++\10.2.1\bits\stl_vector.h ****       /**  Returns the size() of the largest possible %vector.  */
 922:c:\tools\gcc-arm-none-eabi-10-2020-q4-major\arm-none-eabi\include\c++\10.2.1\bits\stl_vector.h ****       size_type
 923:c:\tools\gcc-arm-none-eabi-10-2020-q4-major\arm-none-eabi\include\c++\10.2.1\bits\stl_vector.h ****       max_size() const _GLIBCXX_NOEXCEPT
 924:c:\tools\gcc-arm-none-eabi-10-2020-q4-major\arm-none-eabi\include\c++\10.2.1\bits\stl_vector.h ****       { return _S_max_size(_M_get_Tp_allocator()); }
 925:c:\tools\gcc-arm-none-eabi-10-2020-q4-major\arm-none-eabi\include\c++\10.2.1\bits\stl_vector.h **** 
 926:c:\tools\gcc-arm-none-eabi-10-2020-q4-major\arm-none-eabi\include\c++\10.2.1\bits\stl_vector.h **** #if __cplusplus >= 201103L
 927:c:\tools\gcc-arm-none-eabi-10-2020-q4-major\arm-none-eabi\include\c++\10.2.1\bits\stl_vector.h ****       /**
 928:c:\tools\gcc-arm-none-eabi-10-2020-q4-major\arm-none-eabi\include\c++\10.2.1\bits\stl_vector.h ****        *  @brief  Resizes the %vector to the specified number of elements.
 929:c:\tools\gcc-arm-none-eabi-10-2020-q4-major\arm-none-eabi\include\c++\10.2.1\bits\stl_vector.h ****        *  @param  __new_size  Number of elements the %vector should contain.
 930:c:\tools\gcc-arm-none-eabi-10-2020-q4-major\arm-none-eabi\include\c++\10.2.1\bits\stl_vector.h ****        *
 931:c:\tools\gcc-arm-none-eabi-10-2020-q4-major\arm-none-eabi\include\c++\10.2.1\bits\stl_vector.h ****        *  This function will %resize the %vector to the specified
 932:c:\tools\gcc-arm-none-eabi-10-2020-q4-major\arm-none-eabi\include\c++\10.2.1\bits\stl_vector.h ****        *  number of elements.  If the number is smaller than the
ARM GAS  C:\Users\saite\AppData\Local\Temp\ccxfQYnf.s 			page 37


 933:c:\tools\gcc-arm-none-eabi-10-2020-q4-major\arm-none-eabi\include\c++\10.2.1\bits\stl_vector.h ****        *  %vector's current size the %vector is truncated, otherwise
 934:c:\tools\gcc-arm-none-eabi-10-2020-q4-major\arm-none-eabi\include\c++\10.2.1\bits\stl_vector.h ****        *  default constructed elements are appended.
 935:c:\tools\gcc-arm-none-eabi-10-2020-q4-major\arm-none-eabi\include\c++\10.2.1\bits\stl_vector.h ****        */
 936:c:\tools\gcc-arm-none-eabi-10-2020-q4-major\arm-none-eabi\include\c++\10.2.1\bits\stl_vector.h ****       void
 937:c:\tools\gcc-arm-none-eabi-10-2020-q4-major\arm-none-eabi\include\c++\10.2.1\bits\stl_vector.h ****       resize(size_type __new_size)
 938:c:\tools\gcc-arm-none-eabi-10-2020-q4-major\arm-none-eabi\include\c++\10.2.1\bits\stl_vector.h ****       {
 939:c:\tools\gcc-arm-none-eabi-10-2020-q4-major\arm-none-eabi\include\c++\10.2.1\bits\stl_vector.h **** 	if (__new_size > size())
 940:c:\tools\gcc-arm-none-eabi-10-2020-q4-major\arm-none-eabi\include\c++\10.2.1\bits\stl_vector.h **** 	  _M_default_append(__new_size - size());
 941:c:\tools\gcc-arm-none-eabi-10-2020-q4-major\arm-none-eabi\include\c++\10.2.1\bits\stl_vector.h **** 	else if (__new_size < size())
 942:c:\tools\gcc-arm-none-eabi-10-2020-q4-major\arm-none-eabi\include\c++\10.2.1\bits\stl_vector.h **** 	  _M_erase_at_end(this->_M_impl._M_start + __new_size);
 943:c:\tools\gcc-arm-none-eabi-10-2020-q4-major\arm-none-eabi\include\c++\10.2.1\bits\stl_vector.h ****       }
 944:c:\tools\gcc-arm-none-eabi-10-2020-q4-major\arm-none-eabi\include\c++\10.2.1\bits\stl_vector.h **** 
 945:c:\tools\gcc-arm-none-eabi-10-2020-q4-major\arm-none-eabi\include\c++\10.2.1\bits\stl_vector.h ****       /**
 946:c:\tools\gcc-arm-none-eabi-10-2020-q4-major\arm-none-eabi\include\c++\10.2.1\bits\stl_vector.h ****        *  @brief  Resizes the %vector to the specified number of elements.
 947:c:\tools\gcc-arm-none-eabi-10-2020-q4-major\arm-none-eabi\include\c++\10.2.1\bits\stl_vector.h ****        *  @param  __new_size  Number of elements the %vector should contain.
 948:c:\tools\gcc-arm-none-eabi-10-2020-q4-major\arm-none-eabi\include\c++\10.2.1\bits\stl_vector.h ****        *  @param  __x  Data with which new elements should be populated.
 949:c:\tools\gcc-arm-none-eabi-10-2020-q4-major\arm-none-eabi\include\c++\10.2.1\bits\stl_vector.h ****        *
 950:c:\tools\gcc-arm-none-eabi-10-2020-q4-major\arm-none-eabi\include\c++\10.2.1\bits\stl_vector.h ****        *  This function will %resize the %vector to the specified
 951:c:\tools\gcc-arm-none-eabi-10-2020-q4-major\arm-none-eabi\include\c++\10.2.1\bits\stl_vector.h ****        *  number of elements.  If the number is smaller than the
 952:c:\tools\gcc-arm-none-eabi-10-2020-q4-major\arm-none-eabi\include\c++\10.2.1\bits\stl_vector.h ****        *  %vector's current size the %vector is truncated, otherwise
 953:c:\tools\gcc-arm-none-eabi-10-2020-q4-major\arm-none-eabi\include\c++\10.2.1\bits\stl_vector.h ****        *  the %vector is extended and new elements are populated with
 954:c:\tools\gcc-arm-none-eabi-10-2020-q4-major\arm-none-eabi\include\c++\10.2.1\bits\stl_vector.h ****        *  given data.
 955:c:\tools\gcc-arm-none-eabi-10-2020-q4-major\arm-none-eabi\include\c++\10.2.1\bits\stl_vector.h ****        */
 956:c:\tools\gcc-arm-none-eabi-10-2020-q4-major\arm-none-eabi\include\c++\10.2.1\bits\stl_vector.h ****       void
 957:c:\tools\gcc-arm-none-eabi-10-2020-q4-major\arm-none-eabi\include\c++\10.2.1\bits\stl_vector.h ****       resize(size_type __new_size, const value_type& __x)
 958:c:\tools\gcc-arm-none-eabi-10-2020-q4-major\arm-none-eabi\include\c++\10.2.1\bits\stl_vector.h ****       {
 959:c:\tools\gcc-arm-none-eabi-10-2020-q4-major\arm-none-eabi\include\c++\10.2.1\bits\stl_vector.h **** 	if (__new_size > size())
 960:c:\tools\gcc-arm-none-eabi-10-2020-q4-major\arm-none-eabi\include\c++\10.2.1\bits\stl_vector.h **** 	  _M_fill_insert(end(), __new_size - size(), __x);
 961:c:\tools\gcc-arm-none-eabi-10-2020-q4-major\arm-none-eabi\include\c++\10.2.1\bits\stl_vector.h **** 	else if (__new_size < size())
 962:c:\tools\gcc-arm-none-eabi-10-2020-q4-major\arm-none-eabi\include\c++\10.2.1\bits\stl_vector.h **** 	  _M_erase_at_end(this->_M_impl._M_start + __new_size);
 963:c:\tools\gcc-arm-none-eabi-10-2020-q4-major\arm-none-eabi\include\c++\10.2.1\bits\stl_vector.h ****       }
 964:c:\tools\gcc-arm-none-eabi-10-2020-q4-major\arm-none-eabi\include\c++\10.2.1\bits\stl_vector.h **** #else
 965:c:\tools\gcc-arm-none-eabi-10-2020-q4-major\arm-none-eabi\include\c++\10.2.1\bits\stl_vector.h ****       /**
 966:c:\tools\gcc-arm-none-eabi-10-2020-q4-major\arm-none-eabi\include\c++\10.2.1\bits\stl_vector.h ****        *  @brief  Resizes the %vector to the specified number of elements.
 967:c:\tools\gcc-arm-none-eabi-10-2020-q4-major\arm-none-eabi\include\c++\10.2.1\bits\stl_vector.h ****        *  @param  __new_size  Number of elements the %vector should contain.
 968:c:\tools\gcc-arm-none-eabi-10-2020-q4-major\arm-none-eabi\include\c++\10.2.1\bits\stl_vector.h ****        *  @param  __x  Data with which new elements should be populated.
 969:c:\tools\gcc-arm-none-eabi-10-2020-q4-major\arm-none-eabi\include\c++\10.2.1\bits\stl_vector.h ****        *
 970:c:\tools\gcc-arm-none-eabi-10-2020-q4-major\arm-none-eabi\include\c++\10.2.1\bits\stl_vector.h ****        *  This function will %resize the %vector to the specified
 971:c:\tools\gcc-arm-none-eabi-10-2020-q4-major\arm-none-eabi\include\c++\10.2.1\bits\stl_vector.h ****        *  number of elements.  If the number is smaller than the
 972:c:\tools\gcc-arm-none-eabi-10-2020-q4-major\arm-none-eabi\include\c++\10.2.1\bits\stl_vector.h ****        *  %vector's current size the %vector is truncated, otherwise
 973:c:\tools\gcc-arm-none-eabi-10-2020-q4-major\arm-none-eabi\include\c++\10.2.1\bits\stl_vector.h ****        *  the %vector is extended and new elements are populated with
 974:c:\tools\gcc-arm-none-eabi-10-2020-q4-major\arm-none-eabi\include\c++\10.2.1\bits\stl_vector.h ****        *  given data.
 975:c:\tools\gcc-arm-none-eabi-10-2020-q4-major\arm-none-eabi\include\c++\10.2.1\bits\stl_vector.h ****        */
 976:c:\tools\gcc-arm-none-eabi-10-2020-q4-major\arm-none-eabi\include\c++\10.2.1\bits\stl_vector.h ****       void
 977:c:\tools\gcc-arm-none-eabi-10-2020-q4-major\arm-none-eabi\include\c++\10.2.1\bits\stl_vector.h ****       resize(size_type __new_size, value_type __x = value_type())
 978:c:\tools\gcc-arm-none-eabi-10-2020-q4-major\arm-none-eabi\include\c++\10.2.1\bits\stl_vector.h ****       {
 979:c:\tools\gcc-arm-none-eabi-10-2020-q4-major\arm-none-eabi\include\c++\10.2.1\bits\stl_vector.h **** 	if (__new_size > size())
 980:c:\tools\gcc-arm-none-eabi-10-2020-q4-major\arm-none-eabi\include\c++\10.2.1\bits\stl_vector.h **** 	  _M_fill_insert(end(), __new_size - size(), __x);
 981:c:\tools\gcc-arm-none-eabi-10-2020-q4-major\arm-none-eabi\include\c++\10.2.1\bits\stl_vector.h **** 	else if (__new_size < size())
 982:c:\tools\gcc-arm-none-eabi-10-2020-q4-major\arm-none-eabi\include\c++\10.2.1\bits\stl_vector.h **** 	  _M_erase_at_end(this->_M_impl._M_start + __new_size);
 983:c:\tools\gcc-arm-none-eabi-10-2020-q4-major\arm-none-eabi\include\c++\10.2.1\bits\stl_vector.h ****       }
 984:c:\tools\gcc-arm-none-eabi-10-2020-q4-major\arm-none-eabi\include\c++\10.2.1\bits\stl_vector.h **** #endif
 985:c:\tools\gcc-arm-none-eabi-10-2020-q4-major\arm-none-eabi\include\c++\10.2.1\bits\stl_vector.h **** 
 986:c:\tools\gcc-arm-none-eabi-10-2020-q4-major\arm-none-eabi\include\c++\10.2.1\bits\stl_vector.h **** #if __cplusplus >= 201103L
 987:c:\tools\gcc-arm-none-eabi-10-2020-q4-major\arm-none-eabi\include\c++\10.2.1\bits\stl_vector.h ****       /**  A non-binding request to reduce capacity() to size().  */
 988:c:\tools\gcc-arm-none-eabi-10-2020-q4-major\arm-none-eabi\include\c++\10.2.1\bits\stl_vector.h ****       void
 989:c:\tools\gcc-arm-none-eabi-10-2020-q4-major\arm-none-eabi\include\c++\10.2.1\bits\stl_vector.h ****       shrink_to_fit()
ARM GAS  C:\Users\saite\AppData\Local\Temp\ccxfQYnf.s 			page 38


 990:c:\tools\gcc-arm-none-eabi-10-2020-q4-major\arm-none-eabi\include\c++\10.2.1\bits\stl_vector.h ****       { _M_shrink_to_fit(); }
 991:c:\tools\gcc-arm-none-eabi-10-2020-q4-major\arm-none-eabi\include\c++\10.2.1\bits\stl_vector.h **** #endif
 992:c:\tools\gcc-arm-none-eabi-10-2020-q4-major\arm-none-eabi\include\c++\10.2.1\bits\stl_vector.h **** 
 993:c:\tools\gcc-arm-none-eabi-10-2020-q4-major\arm-none-eabi\include\c++\10.2.1\bits\stl_vector.h ****       /**
 994:c:\tools\gcc-arm-none-eabi-10-2020-q4-major\arm-none-eabi\include\c++\10.2.1\bits\stl_vector.h ****        *  Returns the total number of elements that the %vector can
 995:c:\tools\gcc-arm-none-eabi-10-2020-q4-major\arm-none-eabi\include\c++\10.2.1\bits\stl_vector.h ****        *  hold before needing to allocate more memory.
 996:c:\tools\gcc-arm-none-eabi-10-2020-q4-major\arm-none-eabi\include\c++\10.2.1\bits\stl_vector.h ****        */
 997:c:\tools\gcc-arm-none-eabi-10-2020-q4-major\arm-none-eabi\include\c++\10.2.1\bits\stl_vector.h ****       size_type
 998:c:\tools\gcc-arm-none-eabi-10-2020-q4-major\arm-none-eabi\include\c++\10.2.1\bits\stl_vector.h ****       capacity() const _GLIBCXX_NOEXCEPT
 999:c:\tools\gcc-arm-none-eabi-10-2020-q4-major\arm-none-eabi\include\c++\10.2.1\bits\stl_vector.h ****       { return size_type(this->_M_impl._M_end_of_storage
1000:c:\tools\gcc-arm-none-eabi-10-2020-q4-major\arm-none-eabi\include\c++\10.2.1\bits\stl_vector.h **** 			 - this->_M_impl._M_start); }
1001:c:\tools\gcc-arm-none-eabi-10-2020-q4-major\arm-none-eabi\include\c++\10.2.1\bits\stl_vector.h **** 
1002:c:\tools\gcc-arm-none-eabi-10-2020-q4-major\arm-none-eabi\include\c++\10.2.1\bits\stl_vector.h ****       /**
1003:c:\tools\gcc-arm-none-eabi-10-2020-q4-major\arm-none-eabi\include\c++\10.2.1\bits\stl_vector.h ****        *  Returns true if the %vector is empty.  (Thus begin() would
1004:c:\tools\gcc-arm-none-eabi-10-2020-q4-major\arm-none-eabi\include\c++\10.2.1\bits\stl_vector.h ****        *  equal end().)
1005:c:\tools\gcc-arm-none-eabi-10-2020-q4-major\arm-none-eabi\include\c++\10.2.1\bits\stl_vector.h ****        */
1006:c:\tools\gcc-arm-none-eabi-10-2020-q4-major\arm-none-eabi\include\c++\10.2.1\bits\stl_vector.h ****       _GLIBCXX_NODISCARD bool
1007:c:\tools\gcc-arm-none-eabi-10-2020-q4-major\arm-none-eabi\include\c++\10.2.1\bits\stl_vector.h ****       empty() const _GLIBCXX_NOEXCEPT
1008:c:\tools\gcc-arm-none-eabi-10-2020-q4-major\arm-none-eabi\include\c++\10.2.1\bits\stl_vector.h ****       { return begin() == end(); }
1009:c:\tools\gcc-arm-none-eabi-10-2020-q4-major\arm-none-eabi\include\c++\10.2.1\bits\stl_vector.h **** 
1010:c:\tools\gcc-arm-none-eabi-10-2020-q4-major\arm-none-eabi\include\c++\10.2.1\bits\stl_vector.h ****       /**
1011:c:\tools\gcc-arm-none-eabi-10-2020-q4-major\arm-none-eabi\include\c++\10.2.1\bits\stl_vector.h ****        *  @brief  Attempt to preallocate enough memory for specified number of
1012:c:\tools\gcc-arm-none-eabi-10-2020-q4-major\arm-none-eabi\include\c++\10.2.1\bits\stl_vector.h ****        *          elements.
1013:c:\tools\gcc-arm-none-eabi-10-2020-q4-major\arm-none-eabi\include\c++\10.2.1\bits\stl_vector.h ****        *  @param  __n  Number of elements required.
1014:c:\tools\gcc-arm-none-eabi-10-2020-q4-major\arm-none-eabi\include\c++\10.2.1\bits\stl_vector.h ****        *  @throw  std::length_error  If @a n exceeds @c max_size().
1015:c:\tools\gcc-arm-none-eabi-10-2020-q4-major\arm-none-eabi\include\c++\10.2.1\bits\stl_vector.h ****        *
1016:c:\tools\gcc-arm-none-eabi-10-2020-q4-major\arm-none-eabi\include\c++\10.2.1\bits\stl_vector.h ****        *  This function attempts to reserve enough memory for the
1017:c:\tools\gcc-arm-none-eabi-10-2020-q4-major\arm-none-eabi\include\c++\10.2.1\bits\stl_vector.h ****        *  %vector to hold the specified number of elements.  If the
1018:c:\tools\gcc-arm-none-eabi-10-2020-q4-major\arm-none-eabi\include\c++\10.2.1\bits\stl_vector.h ****        *  number requested is more than max_size(), length_error is
1019:c:\tools\gcc-arm-none-eabi-10-2020-q4-major\arm-none-eabi\include\c++\10.2.1\bits\stl_vector.h ****        *  thrown.
1020:c:\tools\gcc-arm-none-eabi-10-2020-q4-major\arm-none-eabi\include\c++\10.2.1\bits\stl_vector.h ****        *
1021:c:\tools\gcc-arm-none-eabi-10-2020-q4-major\arm-none-eabi\include\c++\10.2.1\bits\stl_vector.h ****        *  The advantage of this function is that if optimal code is a
1022:c:\tools\gcc-arm-none-eabi-10-2020-q4-major\arm-none-eabi\include\c++\10.2.1\bits\stl_vector.h ****        *  necessity and the user can determine the number of elements
1023:c:\tools\gcc-arm-none-eabi-10-2020-q4-major\arm-none-eabi\include\c++\10.2.1\bits\stl_vector.h ****        *  that will be required, the user can reserve the memory in
1024:c:\tools\gcc-arm-none-eabi-10-2020-q4-major\arm-none-eabi\include\c++\10.2.1\bits\stl_vector.h ****        *  %advance, and thus prevent a possible reallocation of memory
1025:c:\tools\gcc-arm-none-eabi-10-2020-q4-major\arm-none-eabi\include\c++\10.2.1\bits\stl_vector.h ****        *  and copying of %vector data.
1026:c:\tools\gcc-arm-none-eabi-10-2020-q4-major\arm-none-eabi\include\c++\10.2.1\bits\stl_vector.h ****        */
1027:c:\tools\gcc-arm-none-eabi-10-2020-q4-major\arm-none-eabi\include\c++\10.2.1\bits\stl_vector.h ****       void
1028:c:\tools\gcc-arm-none-eabi-10-2020-q4-major\arm-none-eabi\include\c++\10.2.1\bits\stl_vector.h ****       reserve(size_type __n);
1029:c:\tools\gcc-arm-none-eabi-10-2020-q4-major\arm-none-eabi\include\c++\10.2.1\bits\stl_vector.h **** 
1030:c:\tools\gcc-arm-none-eabi-10-2020-q4-major\arm-none-eabi\include\c++\10.2.1\bits\stl_vector.h ****       // element access
1031:c:\tools\gcc-arm-none-eabi-10-2020-q4-major\arm-none-eabi\include\c++\10.2.1\bits\stl_vector.h ****       /**
1032:c:\tools\gcc-arm-none-eabi-10-2020-q4-major\arm-none-eabi\include\c++\10.2.1\bits\stl_vector.h ****        *  @brief  Subscript access to the data contained in the %vector.
1033:c:\tools\gcc-arm-none-eabi-10-2020-q4-major\arm-none-eabi\include\c++\10.2.1\bits\stl_vector.h ****        *  @param __n The index of the element for which data should be
1034:c:\tools\gcc-arm-none-eabi-10-2020-q4-major\arm-none-eabi\include\c++\10.2.1\bits\stl_vector.h ****        *  accessed.
1035:c:\tools\gcc-arm-none-eabi-10-2020-q4-major\arm-none-eabi\include\c++\10.2.1\bits\stl_vector.h ****        *  @return  Read/write reference to data.
1036:c:\tools\gcc-arm-none-eabi-10-2020-q4-major\arm-none-eabi\include\c++\10.2.1\bits\stl_vector.h ****        *
1037:c:\tools\gcc-arm-none-eabi-10-2020-q4-major\arm-none-eabi\include\c++\10.2.1\bits\stl_vector.h ****        *  This operator allows for easy, array-style, data access.
1038:c:\tools\gcc-arm-none-eabi-10-2020-q4-major\arm-none-eabi\include\c++\10.2.1\bits\stl_vector.h ****        *  Note that data access with this operator is unchecked and
1039:c:\tools\gcc-arm-none-eabi-10-2020-q4-major\arm-none-eabi\include\c++\10.2.1\bits\stl_vector.h ****        *  out_of_range lookups are not defined. (For checked lookups
1040:c:\tools\gcc-arm-none-eabi-10-2020-q4-major\arm-none-eabi\include\c++\10.2.1\bits\stl_vector.h ****        *  see at().)
1041:c:\tools\gcc-arm-none-eabi-10-2020-q4-major\arm-none-eabi\include\c++\10.2.1\bits\stl_vector.h ****        */
1042:c:\tools\gcc-arm-none-eabi-10-2020-q4-major\arm-none-eabi\include\c++\10.2.1\bits\stl_vector.h ****       reference
1043:c:\tools\gcc-arm-none-eabi-10-2020-q4-major\arm-none-eabi\include\c++\10.2.1\bits\stl_vector.h ****       operator[](size_type __n) _GLIBCXX_NOEXCEPT
1044:c:\tools\gcc-arm-none-eabi-10-2020-q4-major\arm-none-eabi\include\c++\10.2.1\bits\stl_vector.h ****       {
1045:c:\tools\gcc-arm-none-eabi-10-2020-q4-major\arm-none-eabi\include\c++\10.2.1\bits\stl_vector.h **** 	__glibcxx_requires_subscript(__n);
1046:c:\tools\gcc-arm-none-eabi-10-2020-q4-major\arm-none-eabi\include\c++\10.2.1\bits\stl_vector.h **** 	return *(this->_M_impl._M_start + __n);
ARM GAS  C:\Users\saite\AppData\Local\Temp\ccxfQYnf.s 			page 39


1047:c:\tools\gcc-arm-none-eabi-10-2020-q4-major\arm-none-eabi\include\c++\10.2.1\bits\stl_vector.h ****       }
1048:c:\tools\gcc-arm-none-eabi-10-2020-q4-major\arm-none-eabi\include\c++\10.2.1\bits\stl_vector.h **** 
1049:c:\tools\gcc-arm-none-eabi-10-2020-q4-major\arm-none-eabi\include\c++\10.2.1\bits\stl_vector.h ****       /**
1050:c:\tools\gcc-arm-none-eabi-10-2020-q4-major\arm-none-eabi\include\c++\10.2.1\bits\stl_vector.h ****        *  @brief  Subscript access to the data contained in the %vector.
1051:c:\tools\gcc-arm-none-eabi-10-2020-q4-major\arm-none-eabi\include\c++\10.2.1\bits\stl_vector.h ****        *  @param __n The index of the element for which data should be
1052:c:\tools\gcc-arm-none-eabi-10-2020-q4-major\arm-none-eabi\include\c++\10.2.1\bits\stl_vector.h ****        *  accessed.
1053:c:\tools\gcc-arm-none-eabi-10-2020-q4-major\arm-none-eabi\include\c++\10.2.1\bits\stl_vector.h ****        *  @return  Read-only (constant) reference to data.
1054:c:\tools\gcc-arm-none-eabi-10-2020-q4-major\arm-none-eabi\include\c++\10.2.1\bits\stl_vector.h ****        *
1055:c:\tools\gcc-arm-none-eabi-10-2020-q4-major\arm-none-eabi\include\c++\10.2.1\bits\stl_vector.h ****        *  This operator allows for easy, array-style, data access.
1056:c:\tools\gcc-arm-none-eabi-10-2020-q4-major\arm-none-eabi\include\c++\10.2.1\bits\stl_vector.h ****        *  Note that data access with this operator is unchecked and
1057:c:\tools\gcc-arm-none-eabi-10-2020-q4-major\arm-none-eabi\include\c++\10.2.1\bits\stl_vector.h ****        *  out_of_range lookups are not defined. (For checked lookups
1058:c:\tools\gcc-arm-none-eabi-10-2020-q4-major\arm-none-eabi\include\c++\10.2.1\bits\stl_vector.h ****        *  see at().)
1059:c:\tools\gcc-arm-none-eabi-10-2020-q4-major\arm-none-eabi\include\c++\10.2.1\bits\stl_vector.h ****        */
1060:c:\tools\gcc-arm-none-eabi-10-2020-q4-major\arm-none-eabi\include\c++\10.2.1\bits\stl_vector.h ****       const_reference
1061:c:\tools\gcc-arm-none-eabi-10-2020-q4-major\arm-none-eabi\include\c++\10.2.1\bits\stl_vector.h ****       operator[](size_type __n) const _GLIBCXX_NOEXCEPT
1062:c:\tools\gcc-arm-none-eabi-10-2020-q4-major\arm-none-eabi\include\c++\10.2.1\bits\stl_vector.h ****       {
1063:c:\tools\gcc-arm-none-eabi-10-2020-q4-major\arm-none-eabi\include\c++\10.2.1\bits\stl_vector.h **** 	__glibcxx_requires_subscript(__n);
1064:c:\tools\gcc-arm-none-eabi-10-2020-q4-major\arm-none-eabi\include\c++\10.2.1\bits\stl_vector.h **** 	return *(this->_M_impl._M_start + __n);
1065:c:\tools\gcc-arm-none-eabi-10-2020-q4-major\arm-none-eabi\include\c++\10.2.1\bits\stl_vector.h ****       }
1066:c:\tools\gcc-arm-none-eabi-10-2020-q4-major\arm-none-eabi\include\c++\10.2.1\bits\stl_vector.h **** 
1067:c:\tools\gcc-arm-none-eabi-10-2020-q4-major\arm-none-eabi\include\c++\10.2.1\bits\stl_vector.h ****     protected:
1068:c:\tools\gcc-arm-none-eabi-10-2020-q4-major\arm-none-eabi\include\c++\10.2.1\bits\stl_vector.h ****       /// Safety check used only from at().
1069:c:\tools\gcc-arm-none-eabi-10-2020-q4-major\arm-none-eabi\include\c++\10.2.1\bits\stl_vector.h ****       void
1070:c:\tools\gcc-arm-none-eabi-10-2020-q4-major\arm-none-eabi\include\c++\10.2.1\bits\stl_vector.h ****       _M_range_check(size_type __n) const
1071:c:\tools\gcc-arm-none-eabi-10-2020-q4-major\arm-none-eabi\include\c++\10.2.1\bits\stl_vector.h ****       {
1072:c:\tools\gcc-arm-none-eabi-10-2020-q4-major\arm-none-eabi\include\c++\10.2.1\bits\stl_vector.h **** 	if (__n >= this->size())
1073:c:\tools\gcc-arm-none-eabi-10-2020-q4-major\arm-none-eabi\include\c++\10.2.1\bits\stl_vector.h **** 	  __throw_out_of_range_fmt(__N("vector::_M_range_check: __n "
1074:c:\tools\gcc-arm-none-eabi-10-2020-q4-major\arm-none-eabi\include\c++\10.2.1\bits\stl_vector.h **** 				       "(which is %zu) >= this->size() "
1075:c:\tools\gcc-arm-none-eabi-10-2020-q4-major\arm-none-eabi\include\c++\10.2.1\bits\stl_vector.h **** 				       "(which is %zu)"),
1076:c:\tools\gcc-arm-none-eabi-10-2020-q4-major\arm-none-eabi\include\c++\10.2.1\bits\stl_vector.h **** 				   __n, this->size());
1077:c:\tools\gcc-arm-none-eabi-10-2020-q4-major\arm-none-eabi\include\c++\10.2.1\bits\stl_vector.h ****       }
1078:c:\tools\gcc-arm-none-eabi-10-2020-q4-major\arm-none-eabi\include\c++\10.2.1\bits\stl_vector.h **** 
1079:c:\tools\gcc-arm-none-eabi-10-2020-q4-major\arm-none-eabi\include\c++\10.2.1\bits\stl_vector.h ****     public:
1080:c:\tools\gcc-arm-none-eabi-10-2020-q4-major\arm-none-eabi\include\c++\10.2.1\bits\stl_vector.h ****       /**
1081:c:\tools\gcc-arm-none-eabi-10-2020-q4-major\arm-none-eabi\include\c++\10.2.1\bits\stl_vector.h ****        *  @brief  Provides access to the data contained in the %vector.
1082:c:\tools\gcc-arm-none-eabi-10-2020-q4-major\arm-none-eabi\include\c++\10.2.1\bits\stl_vector.h ****        *  @param __n The index of the element for which data should be
1083:c:\tools\gcc-arm-none-eabi-10-2020-q4-major\arm-none-eabi\include\c++\10.2.1\bits\stl_vector.h ****        *  accessed.
1084:c:\tools\gcc-arm-none-eabi-10-2020-q4-major\arm-none-eabi\include\c++\10.2.1\bits\stl_vector.h ****        *  @return  Read/write reference to data.
1085:c:\tools\gcc-arm-none-eabi-10-2020-q4-major\arm-none-eabi\include\c++\10.2.1\bits\stl_vector.h ****        *  @throw  std::out_of_range  If @a __n is an invalid index.
1086:c:\tools\gcc-arm-none-eabi-10-2020-q4-major\arm-none-eabi\include\c++\10.2.1\bits\stl_vector.h ****        *
1087:c:\tools\gcc-arm-none-eabi-10-2020-q4-major\arm-none-eabi\include\c++\10.2.1\bits\stl_vector.h ****        *  This function provides for safer data access.  The parameter
1088:c:\tools\gcc-arm-none-eabi-10-2020-q4-major\arm-none-eabi\include\c++\10.2.1\bits\stl_vector.h ****        *  is first checked that it is in the range of the vector.  The
1089:c:\tools\gcc-arm-none-eabi-10-2020-q4-major\arm-none-eabi\include\c++\10.2.1\bits\stl_vector.h ****        *  function throws out_of_range if the check fails.
1090:c:\tools\gcc-arm-none-eabi-10-2020-q4-major\arm-none-eabi\include\c++\10.2.1\bits\stl_vector.h ****        */
1091:c:\tools\gcc-arm-none-eabi-10-2020-q4-major\arm-none-eabi\include\c++\10.2.1\bits\stl_vector.h ****       reference
1092:c:\tools\gcc-arm-none-eabi-10-2020-q4-major\arm-none-eabi\include\c++\10.2.1\bits\stl_vector.h ****       at(size_type __n)
1093:c:\tools\gcc-arm-none-eabi-10-2020-q4-major\arm-none-eabi\include\c++\10.2.1\bits\stl_vector.h ****       {
1094:c:\tools\gcc-arm-none-eabi-10-2020-q4-major\arm-none-eabi\include\c++\10.2.1\bits\stl_vector.h **** 	_M_range_check(__n);
1095:c:\tools\gcc-arm-none-eabi-10-2020-q4-major\arm-none-eabi\include\c++\10.2.1\bits\stl_vector.h **** 	return (*this)[__n];
1096:c:\tools\gcc-arm-none-eabi-10-2020-q4-major\arm-none-eabi\include\c++\10.2.1\bits\stl_vector.h ****       }
1097:c:\tools\gcc-arm-none-eabi-10-2020-q4-major\arm-none-eabi\include\c++\10.2.1\bits\stl_vector.h **** 
1098:c:\tools\gcc-arm-none-eabi-10-2020-q4-major\arm-none-eabi\include\c++\10.2.1\bits\stl_vector.h ****       /**
1099:c:\tools\gcc-arm-none-eabi-10-2020-q4-major\arm-none-eabi\include\c++\10.2.1\bits\stl_vector.h ****        *  @brief  Provides access to the data contained in the %vector.
1100:c:\tools\gcc-arm-none-eabi-10-2020-q4-major\arm-none-eabi\include\c++\10.2.1\bits\stl_vector.h ****        *  @param __n The index of the element for which data should be
